	.file	"numberGame.cc"
	.intel_syntax noprefix
	.section	.text._ZnwmPv,"axG",@progbits,_ZnwmPv,comdat
	.weak	_ZnwmPv
	.type	_ZnwmPv, @function
_ZnwmPv:
.LFB169:
	.cfi_startproc
	push	rbp
	.cfi_def_cfa_offset 16
	.cfi_offset 6, -16
	mov	rbp, rsp
	.cfi_def_cfa_register 6
	mov	QWORD PTR [rbp-8], rdi
	mov	QWORD PTR [rbp-16], rsi
	mov	rax, QWORD PTR [rbp-16]
	pop	rbp
	.cfi_def_cfa 7, 8
	ret
	.cfi_endproc
.LFE169:
	.size	_ZnwmPv, .-_ZnwmPv
	.text
	.globl	_Z10mutateStepP7state_t
	.type	_Z10mutateStepP7state_t, @function
_Z10mutateStepP7state_t:
.LFB744:
	.cfi_startproc
	push	rbp
	.cfi_def_cfa_offset 16
	.cfi_offset 6, -16
	mov	rbp, rsp
	.cfi_def_cfa_register 6
	mov	QWORD PTR [rbp-24], rdi
	mov	rax, QWORD PTR [rbp-24]
	mov	edx, DWORD PTR [rax]
	mov	rax, QWORD PTR [rbp-24]
	mov	eax, DWORD PTR [rax+4]
	sub	edx, eax
	mov	eax, edx
	sar	eax, 31
	xor	edx, eax
	mov	DWORD PTR [rbp-16], edx
	sub	DWORD PTR [rbp-16], eax
	mov	rax, QWORD PTR [rbp-24]
	mov	edx, DWORD PTR [rax+4]
	mov	rax, QWORD PTR [rbp-24]
	mov	eax, DWORD PTR [rax+8]
	sub	edx, eax
	mov	eax, edx
	sar	eax, 31
	xor	edx, eax
	mov	DWORD PTR [rbp-12], edx
	sub	DWORD PTR [rbp-12], eax
	mov	rax, QWORD PTR [rbp-24]
	mov	edx, DWORD PTR [rax+8]
	mov	rax, QWORD PTR [rbp-24]
	mov	eax, DWORD PTR [rax+12]
	sub	edx, eax
	mov	eax, edx
	sar	eax, 31
	xor	edx, eax
	mov	DWORD PTR [rbp-8], edx
	sub	DWORD PTR [rbp-8], eax
	mov	rax, QWORD PTR [rbp-24]
	mov	edx, DWORD PTR [rax+12]
	mov	rax, QWORD PTR [rbp-24]
	mov	eax, DWORD PTR [rax]
	sub	edx, eax
	mov	eax, edx
	sar	eax, 31
	xor	edx, eax
	mov	DWORD PTR [rbp-4], edx
	sub	DWORD PTR [rbp-4], eax
	mov	rax, QWORD PTR [rbp-24]
	mov	edx, DWORD PTR [rbp-16]
	mov	DWORD PTR [rax], edx
	mov	rax, QWORD PTR [rbp-24]
	mov	edx, DWORD PTR [rbp-12]
	mov	DWORD PTR [rax+4], edx
	mov	rax, QWORD PTR [rbp-24]
	mov	edx, DWORD PTR [rbp-8]
	mov	DWORD PTR [rax+8], edx
	mov	rax, QWORD PTR [rbp-24]
	mov	edx, DWORD PTR [rbp-4]
	mov	DWORD PTR [rax+12], edx
	nop
	pop	rbp
	.cfi_def_cfa 7, 8
	ret
	.cfi_endproc
.LFE744:
	.size	_Z10mutateStepP7state_t, .-_Z10mutateStepP7state_t
	.section	.text._Z15isTerminalStateP7state_t,"axG",@progbits,_Z15isTerminalStateP7state_t,comdat
	.weak	_Z15isTerminalStateP7state_t
	.type	_Z15isTerminalStateP7state_t, @function
_Z15isTerminalStateP7state_t:
.LFB745:
	.cfi_startproc
	push	rbp
	.cfi_def_cfa_offset 16
	.cfi_offset 6, -16
	mov	rbp, rsp
	.cfi_def_cfa_register 6
	mov	QWORD PTR [rbp-8], rdi
	mov	rax, QWORD PTR [rbp-8]
	mov	eax, DWORD PTR [rax]
	test	eax, eax
	je	.L6
	mov	eax, 0
	jmp	.L7
.L6:
	mov	rax, QWORD PTR [rbp-8]
	mov	eax, DWORD PTR [rax+4]
	test	eax, eax
	je	.L8
	mov	eax, 0
	jmp	.L7
.L8:
	mov	rax, QWORD PTR [rbp-8]
	mov	eax, DWORD PTR [rax+8]
	test	eax, eax
	je	.L9
	mov	eax, 0
	jmp	.L7
.L9:
	mov	rax, QWORD PTR [rbp-8]
	mov	eax, DWORD PTR [rax+12]
	test	eax, eax
	je	.L10
	mov	eax, 0
	jmp	.L7
.L10:
	mov	eax, 1
.L7:
	pop	rbp
	.cfi_def_cfa 7, 8
	ret
	.cfi_endproc
.LFE745:
	.size	_Z15isTerminalStateP7state_t, .-_Z15isTerminalStateP7state_t
	.text
	.globl	_Z10pathLengthP7state_t
	.type	_Z10pathLengthP7state_t, @function
_Z10pathLengthP7state_t:
.LFB746:
	.cfi_startproc
	push	rbp
	.cfi_def_cfa_offset 16
	.cfi_offset 6, -16
	mov	rbp, rsp
	.cfi_def_cfa_register 6
	sub	rsp, 32
	mov	QWORD PTR [rbp-24], rdi
	mov	DWORD PTR [rbp-4], 0
	jmp	.L12
.L13:
	mov	rax, QWORD PTR [rbp-24]
	mov	rdi, rax
	call	_Z10mutateStepP7state_t
	add	DWORD PTR [rbp-4], 1
.L12:
	mov	rax, QWORD PTR [rbp-24]
	mov	rdi, rax
	call	_Z15isTerminalStateP7state_t
	xor	eax, 1
	test	al, al
	jne	.L13
	mov	eax, DWORD PTR [rbp-4]
	leave
	.cfi_def_cfa 7, 8
	ret
	.cfi_endproc
.LFE746:
	.size	_Z10pathLengthP7state_t, .-_Z10pathLengthP7state_t
	.section	.text._ZNSt3mapIilSt4lessIiESaISt4pairIKilEEED2Ev,"axG",@progbits,_ZNSt3mapIilSt4lessIiESaISt4pairIKilEEED5Ev,comdat
	.align 2
	.weak	_ZNSt3mapIilSt4lessIiESaISt4pairIKilEEED2Ev
	.type	_ZNSt3mapIilSt4lessIiESaISt4pairIKilEEED2Ev, @function
_ZNSt3mapIilSt4lessIiESaISt4pairIKilEEED2Ev:
.LFB749:
	.cfi_startproc
	push	rbp
	.cfi_def_cfa_offset 16
	.cfi_offset 6, -16
	mov	rbp, rsp
	.cfi_def_cfa_register 6
	sub	rsp, 16
	mov	QWORD PTR [rbp-8], rdi
	mov	rax, QWORD PTR [rbp-8]
	mov	rdi, rax
	call	_ZNSt8_Rb_treeIiSt4pairIKilESt10_Select1stIS2_ESt4lessIiESaIS2_EED1Ev
	leave
	.cfi_def_cfa 7, 8
	ret
	.cfi_endproc
.LFE749:
	.size	_ZNSt3mapIilSt4lessIiESaISt4pairIKilEEED2Ev, .-_ZNSt3mapIilSt4lessIiESaISt4pairIKilEEED2Ev
	.weak	_ZNSt3mapIilSt4lessIiESaISt4pairIKilEEED1Ev
	.set	_ZNSt3mapIilSt4lessIiESaISt4pairIKilEEED1Ev,_ZNSt3mapIilSt4lessIiESaISt4pairIKilEEED2Ev
	.section	.rodata
.LC0:
	.string	"%d -> %ld\n"
	.text
	.globl	main
	.type	main, @function
main:
.LFB747:
	.cfi_startproc
	.cfi_personality 0x3,__gxx_personality_v0
	.cfi_lsda 0x3,.LLSDA747
	push	rbp
	.cfi_def_cfa_offset 16
	.cfi_offset 6, -16
	mov	rbp, rsp
	.cfi_def_cfa_register 6
	push	rbx
	sub	rsp, 184
	.cfi_offset 3, -24
	mov	DWORD PTR [rbp-180], edi
	mov	QWORD PTR [rbp-192], rsi
	lea	rax, [rbp-64]
	mov	rdi, rax
.LEHB0:
	call	_ZNSt3mapIilSt4lessIiESaISt4pairIKilEEEC1Ev
.LEHE0:
	mov	rax, QWORD PTR [rbp-192]
	add	rax, 8
	mov	rax, QWORD PTR [rax]
	mov	rdi, rax
	call	atoi
	mov	DWORD PTR [rbp-148], eax
	mov	DWORD PTR [rbp-168], 0
	mov	DWORD PTR [rbp-164], 0
	jmp	.L18
.L27:
	mov	DWORD PTR [rbp-160], 0
	jmp	.L19
.L26:
	mov	DWORD PTR [rbp-156], 0
	jmp	.L20
.L25:
	mov	DWORD PTR [rbp-152], 0
	jmp	.L21
.L24:
	mov	eax, DWORD PTR [rbp-164]
	mov	DWORD PTR [rbp-80], eax
	mov	eax, DWORD PTR [rbp-160]
	mov	DWORD PTR [rbp-76], eax
	mov	eax, DWORD PTR [rbp-156]
	mov	DWORD PTR [rbp-72], eax
	mov	eax, DWORD PTR [rbp-152]
	mov	DWORD PTR [rbp-68], eax
	lea	rax, [rbp-80]
	mov	rdi, rax
	call	_Z10pathLengthP7state_t
	mov	DWORD PTR [rbp-168], eax
	lea	rdx, [rbp-168]
	lea	rax, [rbp-64]
	mov	rsi, rdx
	mov	rdi, rax
.LEHB1:
	call	_ZNSt3mapIilSt4lessIiESaISt4pairIKilEEE4findERS3_
	mov	QWORD PTR [rbp-128], rax
	lea	rdx, [rbp-128]
	lea	rax, [rbp-144]
	mov	rsi, rdx
	mov	rdi, rax
	call	_ZNSt23_Rb_tree_const_iteratorISt4pairIKilEEC1ERKSt17_Rb_tree_iteratorIS2_E
	lea	rax, [rbp-64]
	mov	rdi, rax
	call	_ZNSt3mapIilSt4lessIiESaISt4pairIKilEEE3endEv
	mov	QWORD PTR [rbp-112], rax
	lea	rdx, [rbp-112]
	lea	rax, [rbp-96]
	mov	rsi, rdx
	mov	rdi, rax
	call	_ZNSt23_Rb_tree_const_iteratorISt4pairIKilEEC1ERKSt17_Rb_tree_iteratorIS2_E
	lea	rdx, [rbp-96]
	lea	rax, [rbp-144]
	mov	rsi, rdx
	mov	rdi, rax
	call	_ZNKSt23_Rb_tree_const_iteratorISt4pairIKilEEeqERKS3_
	test	al, al
	je	.L22
	lea	rdx, [rbp-168]
	lea	rax, [rbp-64]
	mov	rsi, rdx
	mov	rdi, rax
	call	_ZNSt3mapIilSt4lessIiESaISt4pairIKilEEEixERS3_
	mov	QWORD PTR [rax], 1
	jmp	.L23
.L22:
	lea	rdx, [rbp-168]
	lea	rax, [rbp-64]
	mov	rsi, rdx
	mov	rdi, rax
	call	_ZNSt3mapIilSt4lessIiESaISt4pairIKilEEEixERS3_
.LEHE1:
	mov	rdx, QWORD PTR [rax]
	add	rdx, 1
	mov	QWORD PTR [rax], rdx
.L23:
	add	DWORD PTR [rbp-152], 1
.L21:
	mov	eax, DWORD PTR [rbp-152]
	cmp	eax, DWORD PTR [rbp-148]
	setl	al
	test	al, al
	jne	.L24
	add	DWORD PTR [rbp-156], 1
.L20:
	mov	eax, DWORD PTR [rbp-156]
	cmp	eax, DWORD PTR [rbp-148]
	setl	al
	test	al, al
	jne	.L25
	add	DWORD PTR [rbp-160], 1
.L19:
	mov	eax, DWORD PTR [rbp-160]
	cmp	eax, DWORD PTR [rbp-148]
	setl	al
	test	al, al
	jne	.L26
	add	DWORD PTR [rbp-164], 1
.L18:
	mov	eax, DWORD PTR [rbp-164]
	cmp	eax, DWORD PTR [rbp-148]
	setl	al
	test	al, al
	jne	.L27
	lea	rax, [rbp-64]
	mov	rdi, rax
.LEHB2:
	call	_ZNSt3mapIilSt4lessIiESaISt4pairIKilEEE5beginEv
	mov	QWORD PTR [rbp-112], rax
	jmp	.L28
.L29:
	lea	rax, [rbp-112]
	mov	rdi, rax
	call	_ZNKSt17_Rb_tree_iteratorISt4pairIKilEEptEv
	mov	rbx, QWORD PTR [rax+8]
	lea	rax, [rbp-112]
	mov	rdi, rax
	call	_ZNKSt17_Rb_tree_iteratorISt4pairIKilEEptEv
	mov	eax, DWORD PTR [rax]
	mov	rdx, rbx
	mov	esi, eax
	mov	edi, OFFSET FLAT:.LC0
	mov	eax, 0
	call	printf
	lea	rax, [rbp-112]
	mov	esi, 0
	mov	rdi, rax
	call	_ZNSt17_Rb_tree_iteratorISt4pairIKilEEppEi
.L28:
	lea	rax, [rbp-64]
	mov	rdi, rax
	call	_ZNSt3mapIilSt4lessIiESaISt4pairIKilEEE3endEv
.LEHE2:
	mov	QWORD PTR [rbp-96], rax
	lea	rdx, [rbp-96]
	lea	rax, [rbp-112]
	mov	rsi, rdx
	mov	rdi, rax
	call	_ZNKSt17_Rb_tree_iteratorISt4pairIKilEEneERKS3_
	test	al, al
	jne	.L29
	lea	rax, [rbp-64]
	mov	rdi, rax
.LEHB3:
	call	_ZNSt3mapIilSt4lessIiESaISt4pairIKilEEED1Ev
.LEHE3:
	mov	eax, 0
	jmp	.L38
.L36:
	mov	rbx, rax
	jmp	.L32
.L37:
	mov	rbx, rax
.L32:
	lea	rax, [rbp-64]
	mov	rdi, rax
	call	_ZNSt3mapIilSt4lessIiESaISt4pairIKilEEED1Ev
	mov	rax, rbx
	jmp	.L34
.L35:
.L34:
	mov	rdi, rax
.LEHB4:
	call	_Unwind_Resume
.LEHE4:
.L38:
	add	rsp, 184
	pop	rbx
	pop	rbp
	.cfi_def_cfa 7, 8
	ret
	.cfi_endproc
.LFE747:
	.globl	__gxx_personality_v0
	.section	.gcc_except_table,"a",@progbits
.LLSDA747:
	.byte	0xff
	.byte	0xff
	.byte	0x1
	.uleb128 .LLSDACSE747-.LLSDACSB747
.LLSDACSB747:
	.uleb128 .LEHB0-.LFB747
	.uleb128 .LEHE0-.LEHB0
	.uleb128 .L35-.LFB747
	.uleb128 0
	.uleb128 .LEHB1-.LFB747
	.uleb128 .LEHE1-.LEHB1
	.uleb128 .L36-.LFB747
	.uleb128 0
	.uleb128 .LEHB2-.LFB747
	.uleb128 .LEHE2-.LEHB2
	.uleb128 .L37-.LFB747
	.uleb128 0
	.uleb128 .LEHB3-.LFB747
	.uleb128 .LEHE3-.LEHB3
	.uleb128 .L35-.LFB747
	.uleb128 0
	.uleb128 .LEHB4-.LFB747
	.uleb128 .LEHE4-.LEHB4
	.uleb128 0
	.uleb128 0
.LLSDACSE747:
	.text
	.size	main, .-main
	.section	.text._ZNSt3mapIilSt4lessIiESaISt4pairIKilEEEC2Ev,"axG",@progbits,_ZNSt3mapIilSt4lessIiESaISt4pairIKilEEEC5Ev,comdat
	.align 2
	.weak	_ZNSt3mapIilSt4lessIiESaISt4pairIKilEEEC2Ev
	.type	_ZNSt3mapIilSt4lessIiESaISt4pairIKilEEEC2Ev, @function
_ZNSt3mapIilSt4lessIiESaISt4pairIKilEEEC2Ev:
.LFB753:
	.cfi_startproc
	push	rbp
	.cfi_def_cfa_offset 16
	.cfi_offset 6, -16
	mov	rbp, rsp
	.cfi_def_cfa_register 6
	sub	rsp, 16
	mov	QWORD PTR [rbp-8], rdi
	mov	rax, QWORD PTR [rbp-8]
	mov	rdi, rax
	call	_ZNSt8_Rb_treeIiSt4pairIKilESt10_Select1stIS2_ESt4lessIiESaIS2_EEC1Ev
	leave
	.cfi_def_cfa 7, 8
	ret
	.cfi_endproc
.LFE753:
	.size	_ZNSt3mapIilSt4lessIiESaISt4pairIKilEEEC2Ev, .-_ZNSt3mapIilSt4lessIiESaISt4pairIKilEEEC2Ev
	.weak	_ZNSt3mapIilSt4lessIiESaISt4pairIKilEEEC1Ev
	.set	_ZNSt3mapIilSt4lessIiESaISt4pairIKilEEEC1Ev,_ZNSt3mapIilSt4lessIiESaISt4pairIKilEEEC2Ev
	.section	.text._ZNSt8_Rb_treeIiSt4pairIKilESt10_Select1stIS2_ESt4lessIiESaIS2_EE13_Rb_tree_implIS6_Lb0EED2Ev,"axG",@progbits,_ZNSt8_Rb_treeIiSt4pairIKilESt10_Select1stIS2_ESt4lessIiESaIS2_EE13_Rb_tree_implIS6_Lb0EED5Ev,comdat
	.align 2
	.weak	_ZNSt8_Rb_treeIiSt4pairIKilESt10_Select1stIS2_ESt4lessIiESaIS2_EE13_Rb_tree_implIS6_Lb0EED2Ev
	.type	_ZNSt8_Rb_treeIiSt4pairIKilESt10_Select1stIS2_ESt4lessIiESaIS2_EE13_Rb_tree_implIS6_Lb0EED2Ev, @function
_ZNSt8_Rb_treeIiSt4pairIKilESt10_Select1stIS2_ESt4lessIiESaIS2_EE13_Rb_tree_implIS6_Lb0EED2Ev:
.LFB757:
	.cfi_startproc
	push	rbp
	.cfi_def_cfa_offset 16
	.cfi_offset 6, -16
	mov	rbp, rsp
	.cfi_def_cfa_register 6
	sub	rsp, 16
	mov	QWORD PTR [rbp-8], rdi
	mov	rax, QWORD PTR [rbp-8]
	mov	rdi, rax
	call	_ZNSaISt13_Rb_tree_nodeISt4pairIKilEEED2Ev
	leave
	.cfi_def_cfa 7, 8
	ret
	.cfi_endproc
.LFE757:
	.size	_ZNSt8_Rb_treeIiSt4pairIKilESt10_Select1stIS2_ESt4lessIiESaIS2_EE13_Rb_tree_implIS6_Lb0EED2Ev, .-_ZNSt8_Rb_treeIiSt4pairIKilESt10_Select1stIS2_ESt4lessIiESaIS2_EE13_Rb_tree_implIS6_Lb0EED2Ev
	.weak	_ZNSt8_Rb_treeIiSt4pairIKilESt10_Select1stIS2_ESt4lessIiESaIS2_EE13_Rb_tree_implIS6_Lb0EED1Ev
	.set	_ZNSt8_Rb_treeIiSt4pairIKilESt10_Select1stIS2_ESt4lessIiESaIS2_EE13_Rb_tree_implIS6_Lb0EED1Ev,_ZNSt8_Rb_treeIiSt4pairIKilESt10_Select1stIS2_ESt4lessIiESaIS2_EE13_Rb_tree_implIS6_Lb0EED2Ev
	.section	.text._ZNSt8_Rb_treeIiSt4pairIKilESt10_Select1stIS2_ESt4lessIiESaIS2_EED2Ev,"axG",@progbits,_ZNSt8_Rb_treeIiSt4pairIKilESt10_Select1stIS2_ESt4lessIiESaIS2_EED5Ev,comdat
	.align 2
	.weak	_ZNSt8_Rb_treeIiSt4pairIKilESt10_Select1stIS2_ESt4lessIiESaIS2_EED2Ev
	.type	_ZNSt8_Rb_treeIiSt4pairIKilESt10_Select1stIS2_ESt4lessIiESaIS2_EED2Ev, @function
_ZNSt8_Rb_treeIiSt4pairIKilESt10_Select1stIS2_ESt4lessIiESaIS2_EED2Ev:
.LFB759:
	.cfi_startproc
	.cfi_personality 0x3,__gxx_personality_v0
	.cfi_lsda 0x3,.LLSDA759
	push	rbp
	.cfi_def_cfa_offset 16
	.cfi_offset 6, -16
	mov	rbp, rsp
	.cfi_def_cfa_register 6
	push	rbx
	sub	rsp, 24
	.cfi_offset 3, -24
	mov	QWORD PTR [rbp-24], rdi
	mov	rax, QWORD PTR [rbp-24]
	mov	rdi, rax
	call	_ZNSt8_Rb_treeIiSt4pairIKilESt10_Select1stIS2_ESt4lessIiESaIS2_EE8_M_beginEv
	mov	rdx, rax
	mov	rax, QWORD PTR [rbp-24]
	mov	rsi, rdx
	mov	rdi, rax
.LEHB5:
	call	_ZNSt8_Rb_treeIiSt4pairIKilESt10_Select1stIS2_ESt4lessIiESaIS2_EE8_M_eraseEPSt13_Rb_tree_nodeIS2_E
.LEHE5:
	mov	rax, QWORD PTR [rbp-24]
	mov	rdi, rax
	call	_ZNSt8_Rb_treeIiSt4pairIKilESt10_Select1stIS2_ESt4lessIiESaIS2_EE13_Rb_tree_implIS6_Lb0EED1Ev
	jmp	.L46
.L45:
	mov	rbx, rax
	mov	rax, QWORD PTR [rbp-24]
	mov	rdi, rax
	call	_ZNSt8_Rb_treeIiSt4pairIKilESt10_Select1stIS2_ESt4lessIiESaIS2_EE13_Rb_tree_implIS6_Lb0EED1Ev
	mov	rax, rbx
	mov	rdi, rax
.LEHB6:
	call	_Unwind_Resume
.LEHE6:
.L46:
	add	rsp, 24
	pop	rbx
	pop	rbp
	.cfi_def_cfa 7, 8
	ret
	.cfi_endproc
.LFE759:
	.section	.gcc_except_table
.LLSDA759:
	.byte	0xff
	.byte	0xff
	.byte	0x1
	.uleb128 .LLSDACSE759-.LLSDACSB759
.LLSDACSB759:
	.uleb128 .LEHB5-.LFB759
	.uleb128 .LEHE5-.LEHB5
	.uleb128 .L45-.LFB759
	.uleb128 0
	.uleb128 .LEHB6-.LFB759
	.uleb128 .LEHE6-.LEHB6
	.uleb128 0
	.uleb128 0
.LLSDACSE759:
	.section	.text._ZNSt8_Rb_treeIiSt4pairIKilESt10_Select1stIS2_ESt4lessIiESaIS2_EED2Ev,"axG",@progbits,_ZNSt8_Rb_treeIiSt4pairIKilESt10_Select1stIS2_ESt4lessIiESaIS2_EED5Ev,comdat
	.size	_ZNSt8_Rb_treeIiSt4pairIKilESt10_Select1stIS2_ESt4lessIiESaIS2_EED2Ev, .-_ZNSt8_Rb_treeIiSt4pairIKilESt10_Select1stIS2_ESt4lessIiESaIS2_EED2Ev
	.weak	_ZNSt8_Rb_treeIiSt4pairIKilESt10_Select1stIS2_ESt4lessIiESaIS2_EED1Ev
	.set	_ZNSt8_Rb_treeIiSt4pairIKilESt10_Select1stIS2_ESt4lessIiESaIS2_EED1Ev,_ZNSt8_Rb_treeIiSt4pairIKilESt10_Select1stIS2_ESt4lessIiESaIS2_EED2Ev
	.section	.text._ZNSt3mapIilSt4lessIiESaISt4pairIKilEEE4findERS3_,"axG",@progbits,_ZNSt3mapIilSt4lessIiESaISt4pairIKilEEE4findERS3_,comdat
	.align 2
	.weak	_ZNSt3mapIilSt4lessIiESaISt4pairIKilEEE4findERS3_
	.type	_ZNSt3mapIilSt4lessIiESaISt4pairIKilEEE4findERS3_, @function
_ZNSt3mapIilSt4lessIiESaISt4pairIKilEEE4findERS3_:
.LFB761:
	.cfi_startproc
	push	rbp
	.cfi_def_cfa_offset 16
	.cfi_offset 6, -16
	mov	rbp, rsp
	.cfi_def_cfa_register 6
	sub	rsp, 16
	mov	QWORD PTR [rbp-8], rdi
	mov	QWORD PTR [rbp-16], rsi
	mov	rax, QWORD PTR [rbp-8]
	mov	rdx, QWORD PTR [rbp-16]
	mov	rsi, rdx
	mov	rdi, rax
	call	_ZNSt8_Rb_treeIiSt4pairIKilESt10_Select1stIS2_ESt4lessIiESaIS2_EE4findERS1_
	leave
	.cfi_def_cfa 7, 8
	ret
	.cfi_endproc
.LFE761:
	.size	_ZNSt3mapIilSt4lessIiESaISt4pairIKilEEE4findERS3_, .-_ZNSt3mapIilSt4lessIiESaISt4pairIKilEEE4findERS3_
	.section	.text._ZNSt23_Rb_tree_const_iteratorISt4pairIKilEEC2ERKSt17_Rb_tree_iteratorIS2_E,"axG",@progbits,_ZNSt23_Rb_tree_const_iteratorISt4pairIKilEEC5ERKSt17_Rb_tree_iteratorIS2_E,comdat
	.align 2
	.weak	_ZNSt23_Rb_tree_const_iteratorISt4pairIKilEEC2ERKSt17_Rb_tree_iteratorIS2_E
	.type	_ZNSt23_Rb_tree_const_iteratorISt4pairIKilEEC2ERKSt17_Rb_tree_iteratorIS2_E, @function
_ZNSt23_Rb_tree_const_iteratorISt4pairIKilEEC2ERKSt17_Rb_tree_iteratorIS2_E:
.LFB763:
	.cfi_startproc
	push	rbp
	.cfi_def_cfa_offset 16
	.cfi_offset 6, -16
	mov	rbp, rsp
	.cfi_def_cfa_register 6
	mov	QWORD PTR [rbp-8], rdi
	mov	QWORD PTR [rbp-16], rsi
	mov	rax, QWORD PTR [rbp-16]
	mov	rdx, QWORD PTR [rax]
	mov	rax, QWORD PTR [rbp-8]
	mov	QWORD PTR [rax], rdx
	pop	rbp
	.cfi_def_cfa 7, 8
	ret
	.cfi_endproc
.LFE763:
	.size	_ZNSt23_Rb_tree_const_iteratorISt4pairIKilEEC2ERKSt17_Rb_tree_iteratorIS2_E, .-_ZNSt23_Rb_tree_const_iteratorISt4pairIKilEEC2ERKSt17_Rb_tree_iteratorIS2_E
	.weak	_ZNSt23_Rb_tree_const_iteratorISt4pairIKilEEC1ERKSt17_Rb_tree_iteratorIS2_E
	.set	_ZNSt23_Rb_tree_const_iteratorISt4pairIKilEEC1ERKSt17_Rb_tree_iteratorIS2_E,_ZNSt23_Rb_tree_const_iteratorISt4pairIKilEEC2ERKSt17_Rb_tree_iteratorIS2_E
	.section	.text._ZNSt3mapIilSt4lessIiESaISt4pairIKilEEE3endEv,"axG",@progbits,_ZNSt3mapIilSt4lessIiESaISt4pairIKilEEE3endEv,comdat
	.align 2
	.weak	_ZNSt3mapIilSt4lessIiESaISt4pairIKilEEE3endEv
	.type	_ZNSt3mapIilSt4lessIiESaISt4pairIKilEEE3endEv, @function
_ZNSt3mapIilSt4lessIiESaISt4pairIKilEEE3endEv:
.LFB765:
	.cfi_startproc
	push	rbp
	.cfi_def_cfa_offset 16
	.cfi_offset 6, -16
	mov	rbp, rsp
	.cfi_def_cfa_register 6
	sub	rsp, 16
	mov	QWORD PTR [rbp-8], rdi
	mov	rax, QWORD PTR [rbp-8]
	mov	rdi, rax
	call	_ZNSt8_Rb_treeIiSt4pairIKilESt10_Select1stIS2_ESt4lessIiESaIS2_EE3endEv
	leave
	.cfi_def_cfa 7, 8
	ret
	.cfi_endproc
.LFE765:
	.size	_ZNSt3mapIilSt4lessIiESaISt4pairIKilEEE3endEv, .-_ZNSt3mapIilSt4lessIiESaISt4pairIKilEEE3endEv
	.section	.text._ZNKSt23_Rb_tree_const_iteratorISt4pairIKilEEeqERKS3_,"axG",@progbits,_ZNKSt23_Rb_tree_const_iteratorISt4pairIKilEEeqERKS3_,comdat
	.align 2
	.weak	_ZNKSt23_Rb_tree_const_iteratorISt4pairIKilEEeqERKS3_
	.type	_ZNKSt23_Rb_tree_const_iteratorISt4pairIKilEEeqERKS3_, @function
_ZNKSt23_Rb_tree_const_iteratorISt4pairIKilEEeqERKS3_:
.LFB766:
	.cfi_startproc
	push	rbp
	.cfi_def_cfa_offset 16
	.cfi_offset 6, -16
	mov	rbp, rsp
	.cfi_def_cfa_register 6
	mov	QWORD PTR [rbp-8], rdi
	mov	QWORD PTR [rbp-16], rsi
	mov	rax, QWORD PTR [rbp-8]
	mov	rdx, QWORD PTR [rax]
	mov	rax, QWORD PTR [rbp-16]
	mov	rax, QWORD PTR [rax]
	cmp	rdx, rax
	sete	al
	pop	rbp
	.cfi_def_cfa 7, 8
	ret
	.cfi_endproc
.LFE766:
	.size	_ZNKSt23_Rb_tree_const_iteratorISt4pairIKilEEeqERKS3_, .-_ZNKSt23_Rb_tree_const_iteratorISt4pairIKilEEeqERKS3_
	.section	.text._ZNSt3mapIilSt4lessIiESaISt4pairIKilEEEixERS3_,"axG",@progbits,_ZNSt3mapIilSt4lessIiESaISt4pairIKilEEEixERS3_,comdat
	.align 2
	.weak	_ZNSt3mapIilSt4lessIiESaISt4pairIKilEEEixERS3_
	.type	_ZNSt3mapIilSt4lessIiESaISt4pairIKilEEEixERS3_, @function
_ZNSt3mapIilSt4lessIiESaISt4pairIKilEEEixERS3_:
.LFB767:
	.cfi_startproc
	.cfi_personality 0x3,__gxx_personality_v0
	.cfi_lsda 0x3,.LLSDA767
	push	rbp
	.cfi_def_cfa_offset 16
	.cfi_offset 6, -16
	mov	rbp, rsp
	.cfi_def_cfa_register 6
	push	r13
	push	r12
	push	rbx
	sub	rsp, 88
	.cfi_offset 13, -24
	.cfi_offset 12, -32
	.cfi_offset 3, -40
	mov	QWORD PTR [rbp-104], rdi
	mov	QWORD PTR [rbp-112], rsi
	mov	rdx, QWORD PTR [rbp-112]
	mov	rax, QWORD PTR [rbp-104]
	mov	rsi, rdx
	mov	rdi, rax
.LEHB7:
	call	_ZNSt3mapIilSt4lessIiESaISt4pairIKilEEE11lower_boundERS3_
.LEHE7:
	mov	QWORD PTR [rbp-80], rax
	mov	ebx, 0
	mov	r12d, 0
	mov	rax, QWORD PTR [rbp-104]
	mov	rdi, rax
.LEHB8:
	call	_ZNSt3mapIilSt4lessIiESaISt4pairIKilEEE3endEv
	mov	QWORD PTR [rbp-64], rax
	mov	ebx, 1
	lea	rdx, [rbp-64]
	lea	rax, [rbp-80]
	mov	rsi, rdx
	mov	rdi, rax
	call	_ZNKSt17_Rb_tree_iteratorISt4pairIKilEEeqERKS3_
	test	al, al
	jne	.L55
	lea	rax, [rbp-80]
	mov	rdi, rax
	call	_ZNKSt17_Rb_tree_iteratorISt4pairIKilEEdeEv
	mov	r13, rax
	mov	rax, QWORD PTR [rbp-104]
	mov	rdi, rax
	call	_ZNKSt3mapIilSt4lessIiESaISt4pairIKilEEE8key_compEv
.LEHE8:
	mov	r12d, 1
	mov	rcx, QWORD PTR [rbp-112]
	lea	rax, [rbp-81]
	mov	rdx, r13
	mov	rsi, rcx
	mov	rdi, rax
	call	_ZNKSt4lessIiEclERKiS2_
	test	al, al
	je	.L56
.L55:
	mov	eax, 1
	jmp	.L57
.L56:
	mov	eax, 0
.L57:
	test	r12b, r12b
	test	bl, bl
	test	al, al
	je	.L60
	mov	QWORD PTR [rbp-56], 0
	lea	rdx, [rbp-56]
	mov	rcx, QWORD PTR [rbp-112]
	lea	rax, [rbp-48]
	mov	rsi, rcx
	mov	rdi, rax
	call	_ZNSt4pairIKilEC1ERS0_RKl
	lea	rdx, [rbp-48]
	mov	rcx, QWORD PTR [rbp-80]
	mov	rax, QWORD PTR [rbp-104]
	mov	rsi, rcx
	mov	rdi, rax
.LEHB9:
	call	_ZNSt3mapIilSt4lessIiESaISt4pairIKilEEE6insertESt17_Rb_tree_iteratorIS4_ERKS4_
.LEHE9:
	mov	QWORD PTR [rbp-80], rax
.L60:
	lea	rax, [rbp-80]
	mov	rdi, rax
	call	_ZNKSt17_Rb_tree_iteratorISt4pairIKilEEdeEv
	add	rax, 8
	jmp	.L70
.L68:
	test	r12b, r12b
	test	bl, bl
	jmp	.L65
.L69:
	jmp	.L65
.L67:
.L65:
	mov	rdi, rax
.LEHB10:
	call	_Unwind_Resume
.LEHE10:
.L70:
	add	rsp, 88
	pop	rbx
	pop	r12
	pop	r13
	pop	rbp
	.cfi_def_cfa 7, 8
	ret
	.cfi_endproc
.LFE767:
	.section	.gcc_except_table
.LLSDA767:
	.byte	0xff
	.byte	0xff
	.byte	0x1
	.uleb128 .LLSDACSE767-.LLSDACSB767
.LLSDACSB767:
	.uleb128 .LEHB7-.LFB767
	.uleb128 .LEHE7-.LEHB7
	.uleb128 .L67-.LFB767
	.uleb128 0
	.uleb128 .LEHB8-.LFB767
	.uleb128 .LEHE8-.LEHB8
	.uleb128 .L68-.LFB767
	.uleb128 0
	.uleb128 .LEHB9-.LFB767
	.uleb128 .LEHE9-.LEHB9
	.uleb128 .L69-.LFB767
	.uleb128 0
	.uleb128 .LEHB10-.LFB767
	.uleb128 .LEHE10-.LEHB10
	.uleb128 0
	.uleb128 0
.LLSDACSE767:
	.section	.text._ZNSt3mapIilSt4lessIiESaISt4pairIKilEEEixERS3_,"axG",@progbits,_ZNSt3mapIilSt4lessIiESaISt4pairIKilEEEixERS3_,comdat
	.size	_ZNSt3mapIilSt4lessIiESaISt4pairIKilEEEixERS3_, .-_ZNSt3mapIilSt4lessIiESaISt4pairIKilEEEixERS3_
	.section	.text._ZNSt3mapIilSt4lessIiESaISt4pairIKilEEE5beginEv,"axG",@progbits,_ZNSt3mapIilSt4lessIiESaISt4pairIKilEEE5beginEv,comdat
	.align 2
	.weak	_ZNSt3mapIilSt4lessIiESaISt4pairIKilEEE5beginEv
	.type	_ZNSt3mapIilSt4lessIiESaISt4pairIKilEEE5beginEv, @function
_ZNSt3mapIilSt4lessIiESaISt4pairIKilEEE5beginEv:
.LFB768:
	.cfi_startproc
	push	rbp
	.cfi_def_cfa_offset 16
	.cfi_offset 6, -16
	mov	rbp, rsp
	.cfi_def_cfa_register 6
	sub	rsp, 16
	mov	QWORD PTR [rbp-8], rdi
	mov	rax, QWORD PTR [rbp-8]
	mov	rdi, rax
	call	_ZNSt8_Rb_treeIiSt4pairIKilESt10_Select1stIS2_ESt4lessIiESaIS2_EE5beginEv
	leave
	.cfi_def_cfa 7, 8
	ret
	.cfi_endproc
.LFE768:
	.size	_ZNSt3mapIilSt4lessIiESaISt4pairIKilEEE5beginEv, .-_ZNSt3mapIilSt4lessIiESaISt4pairIKilEEE5beginEv
	.section	.text._ZNKSt17_Rb_tree_iteratorISt4pairIKilEEneERKS3_,"axG",@progbits,_ZNKSt17_Rb_tree_iteratorISt4pairIKilEEneERKS3_,comdat
	.align 2
	.weak	_ZNKSt17_Rb_tree_iteratorISt4pairIKilEEneERKS3_
	.type	_ZNKSt17_Rb_tree_iteratorISt4pairIKilEEneERKS3_, @function
_ZNKSt17_Rb_tree_iteratorISt4pairIKilEEneERKS3_:
.LFB769:
	.cfi_startproc
	push	rbp
	.cfi_def_cfa_offset 16
	.cfi_offset 6, -16
	mov	rbp, rsp
	.cfi_def_cfa_register 6
	mov	QWORD PTR [rbp-8], rdi
	mov	QWORD PTR [rbp-16], rsi
	mov	rax, QWORD PTR [rbp-8]
	mov	rdx, QWORD PTR [rax]
	mov	rax, QWORD PTR [rbp-16]
	mov	rax, QWORD PTR [rax]
	cmp	rdx, rax
	setne	al
	pop	rbp
	.cfi_def_cfa 7, 8
	ret
	.cfi_endproc
.LFE769:
	.size	_ZNKSt17_Rb_tree_iteratorISt4pairIKilEEneERKS3_, .-_ZNKSt17_Rb_tree_iteratorISt4pairIKilEEneERKS3_
	.section	.text._ZNSt17_Rb_tree_iteratorISt4pairIKilEEppEi,"axG",@progbits,_ZNSt17_Rb_tree_iteratorISt4pairIKilEEppEi,comdat
	.align 2
	.weak	_ZNSt17_Rb_tree_iteratorISt4pairIKilEEppEi
	.type	_ZNSt17_Rb_tree_iteratorISt4pairIKilEEppEi, @function
_ZNSt17_Rb_tree_iteratorISt4pairIKilEEppEi:
.LFB770:
	.cfi_startproc
	push	rbp
	.cfi_def_cfa_offset 16
	.cfi_offset 6, -16
	mov	rbp, rsp
	.cfi_def_cfa_register 6
	sub	rsp, 32
	mov	QWORD PTR [rbp-24], rdi
	mov	DWORD PTR [rbp-28], esi
	mov	rax, QWORD PTR [rbp-24]
	mov	rax, QWORD PTR [rax]
	mov	QWORD PTR [rbp-16], rax
	mov	rax, QWORD PTR [rbp-24]
	mov	rax, QWORD PTR [rax]
	mov	rdi, rax
	call	_ZSt18_Rb_tree_incrementPSt18_Rb_tree_node_base
	mov	rdx, QWORD PTR [rbp-24]
	mov	QWORD PTR [rdx], rax
	mov	rax, QWORD PTR [rbp-16]
	leave
	.cfi_def_cfa 7, 8
	ret
	.cfi_endproc
.LFE770:
	.size	_ZNSt17_Rb_tree_iteratorISt4pairIKilEEppEi, .-_ZNSt17_Rb_tree_iteratorISt4pairIKilEEppEi
	.section	.text._ZNKSt17_Rb_tree_iteratorISt4pairIKilEEptEv,"axG",@progbits,_ZNKSt17_Rb_tree_iteratorISt4pairIKilEEptEv,comdat
	.align 2
	.weak	_ZNKSt17_Rb_tree_iteratorISt4pairIKilEEptEv
	.type	_ZNKSt17_Rb_tree_iteratorISt4pairIKilEEptEv, @function
_ZNKSt17_Rb_tree_iteratorISt4pairIKilEEptEv:
.LFB771:
	.cfi_startproc
	push	rbp
	.cfi_def_cfa_offset 16
	.cfi_offset 6, -16
	mov	rbp, rsp
	.cfi_def_cfa_register 6
	sub	rsp, 16
	mov	QWORD PTR [rbp-8], rdi
	mov	rax, QWORD PTR [rbp-8]
	mov	rax, QWORD PTR [rax]
	add	rax, 32
	mov	rdi, rax
	call	_ZSt11__addressofISt4pairIKilEEPT_RS3_
	leave
	.cfi_def_cfa 7, 8
	ret
	.cfi_endproc
.LFE771:
	.size	_ZNKSt17_Rb_tree_iteratorISt4pairIKilEEptEv, .-_ZNKSt17_Rb_tree_iteratorISt4pairIKilEEptEv
	.section	.text._ZNSt8_Rb_treeIiSt4pairIKilESt10_Select1stIS2_ESt4lessIiESaIS2_EEC2Ev,"axG",@progbits,_ZNSt8_Rb_treeIiSt4pairIKilESt10_Select1stIS2_ESt4lessIiESaIS2_EEC5Ev,comdat
	.align 2
	.weak	_ZNSt8_Rb_treeIiSt4pairIKilESt10_Select1stIS2_ESt4lessIiESaIS2_EEC2Ev
	.type	_ZNSt8_Rb_treeIiSt4pairIKilESt10_Select1stIS2_ESt4lessIiESaIS2_EEC2Ev, @function
_ZNSt8_Rb_treeIiSt4pairIKilESt10_Select1stIS2_ESt4lessIiESaIS2_EEC2Ev:
.LFB775:
	.cfi_startproc
	push	rbp
	.cfi_def_cfa_offset 16
	.cfi_offset 6, -16
	mov	rbp, rsp
	.cfi_def_cfa_register 6
	sub	rsp, 16
	mov	QWORD PTR [rbp-8], rdi
	mov	rax, QWORD PTR [rbp-8]
	mov	rdi, rax
	call	_ZNSt8_Rb_treeIiSt4pairIKilESt10_Select1stIS2_ESt4lessIiESaIS2_EE13_Rb_tree_implIS6_Lb0EEC1Ev
	leave
	.cfi_def_cfa 7, 8
	ret
	.cfi_endproc
.LFE775:
	.size	_ZNSt8_Rb_treeIiSt4pairIKilESt10_Select1stIS2_ESt4lessIiESaIS2_EEC2Ev, .-_ZNSt8_Rb_treeIiSt4pairIKilESt10_Select1stIS2_ESt4lessIiESaIS2_EEC2Ev
	.weak	_ZNSt8_Rb_treeIiSt4pairIKilESt10_Select1stIS2_ESt4lessIiESaIS2_EEC1Ev
	.set	_ZNSt8_Rb_treeIiSt4pairIKilESt10_Select1stIS2_ESt4lessIiESaIS2_EEC1Ev,_ZNSt8_Rb_treeIiSt4pairIKilESt10_Select1stIS2_ESt4lessIiESaIS2_EEC2Ev
	.section	.text._ZNSaISt13_Rb_tree_nodeISt4pairIKilEEED2Ev,"axG",@progbits,_ZNSaISt13_Rb_tree_nodeISt4pairIKilEEED5Ev,comdat
	.align 2
	.weak	_ZNSaISt13_Rb_tree_nodeISt4pairIKilEEED2Ev
	.type	_ZNSaISt13_Rb_tree_nodeISt4pairIKilEEED2Ev, @function
_ZNSaISt13_Rb_tree_nodeISt4pairIKilEEED2Ev:
.LFB778:
	.cfi_startproc
	push	rbp
	.cfi_def_cfa_offset 16
	.cfi_offset 6, -16
	mov	rbp, rsp
	.cfi_def_cfa_register 6
	sub	rsp, 16
	mov	QWORD PTR [rbp-8], rdi
	mov	rax, QWORD PTR [rbp-8]
	mov	rdi, rax
	call	_ZN9__gnu_cxx13new_allocatorISt13_Rb_tree_nodeISt4pairIKilEEED2Ev
	leave
	.cfi_def_cfa 7, 8
	ret
	.cfi_endproc
.LFE778:
	.size	_ZNSaISt13_Rb_tree_nodeISt4pairIKilEEED2Ev, .-_ZNSaISt13_Rb_tree_nodeISt4pairIKilEEED2Ev
	.weak	_ZNSaISt13_Rb_tree_nodeISt4pairIKilEEED1Ev
	.set	_ZNSaISt13_Rb_tree_nodeISt4pairIKilEEED1Ev,_ZNSaISt13_Rb_tree_nodeISt4pairIKilEEED2Ev
	.section	.text._ZNSt8_Rb_treeIiSt4pairIKilESt10_Select1stIS2_ESt4lessIiESaIS2_EE8_M_eraseEPSt13_Rb_tree_nodeIS2_E,"axG",@progbits,_ZNSt8_Rb_treeIiSt4pairIKilESt10_Select1stIS2_ESt4lessIiESaIS2_EE8_M_eraseEPSt13_Rb_tree_nodeIS2_E,comdat
	.align 2
	.weak	_ZNSt8_Rb_treeIiSt4pairIKilESt10_Select1stIS2_ESt4lessIiESaIS2_EE8_M_eraseEPSt13_Rb_tree_nodeIS2_E
	.type	_ZNSt8_Rb_treeIiSt4pairIKilESt10_Select1stIS2_ESt4lessIiESaIS2_EE8_M_eraseEPSt13_Rb_tree_nodeIS2_E, @function
_ZNSt8_Rb_treeIiSt4pairIKilESt10_Select1stIS2_ESt4lessIiESaIS2_EE8_M_eraseEPSt13_Rb_tree_nodeIS2_E:
.LFB780:
	.cfi_startproc
	push	rbp
	.cfi_def_cfa_offset 16
	.cfi_offset 6, -16
	mov	rbp, rsp
	.cfi_def_cfa_register 6
	sub	rsp, 32
	mov	QWORD PTR [rbp-24], rdi
	mov	QWORD PTR [rbp-32], rsi
	jmp	.L83
.L84:
	mov	rax, QWORD PTR [rbp-32]
	mov	rdi, rax
	call	_ZNSt8_Rb_treeIiSt4pairIKilESt10_Select1stIS2_ESt4lessIiESaIS2_EE8_S_rightEPSt18_Rb_tree_node_base
	mov	rdx, rax
	mov	rax, QWORD PTR [rbp-24]
	mov	rsi, rdx
	mov	rdi, rax
	call	_ZNSt8_Rb_treeIiSt4pairIKilESt10_Select1stIS2_ESt4lessIiESaIS2_EE8_M_eraseEPSt13_Rb_tree_nodeIS2_E
	mov	rax, QWORD PTR [rbp-32]
	mov	rdi, rax
	call	_ZNSt8_Rb_treeIiSt4pairIKilESt10_Select1stIS2_ESt4lessIiESaIS2_EE7_S_leftEPSt18_Rb_tree_node_base
	mov	QWORD PTR [rbp-8], rax
	mov	rdx, QWORD PTR [rbp-32]
	mov	rax, QWORD PTR [rbp-24]
	mov	rsi, rdx
	mov	rdi, rax
	call	_ZNSt8_Rb_treeIiSt4pairIKilESt10_Select1stIS2_ESt4lessIiESaIS2_EE15_M_destroy_nodeEPSt13_Rb_tree_nodeIS2_E
	mov	rax, QWORD PTR [rbp-8]
	mov	QWORD PTR [rbp-32], rax
.L83:
	cmp	QWORD PTR [rbp-32], 0
	setne	al
	test	al, al
	jne	.L84
	leave
	.cfi_def_cfa 7, 8
	ret
	.cfi_endproc
.LFE780:
	.size	_ZNSt8_Rb_treeIiSt4pairIKilESt10_Select1stIS2_ESt4lessIiESaIS2_EE8_M_eraseEPSt13_Rb_tree_nodeIS2_E, .-_ZNSt8_Rb_treeIiSt4pairIKilESt10_Select1stIS2_ESt4lessIiESaIS2_EE8_M_eraseEPSt13_Rb_tree_nodeIS2_E
	.section	.text._ZNSt8_Rb_treeIiSt4pairIKilESt10_Select1stIS2_ESt4lessIiESaIS2_EE8_M_beginEv,"axG",@progbits,_ZNSt8_Rb_treeIiSt4pairIKilESt10_Select1stIS2_ESt4lessIiESaIS2_EE8_M_beginEv,comdat
	.align 2
	.weak	_ZNSt8_Rb_treeIiSt4pairIKilESt10_Select1stIS2_ESt4lessIiESaIS2_EE8_M_beginEv
	.type	_ZNSt8_Rb_treeIiSt4pairIKilESt10_Select1stIS2_ESt4lessIiESaIS2_EE8_M_beginEv, @function
_ZNSt8_Rb_treeIiSt4pairIKilESt10_Select1stIS2_ESt4lessIiESaIS2_EE8_M_beginEv:
.LFB781:
	.cfi_startproc
	push	rbp
	.cfi_def_cfa_offset 16
	.cfi_offset 6, -16
	mov	rbp, rsp
	.cfi_def_cfa_register 6
	mov	QWORD PTR [rbp-8], rdi
	mov	rax, QWORD PTR [rbp-8]
	mov	rax, QWORD PTR [rax+16]
	pop	rbp
	.cfi_def_cfa 7, 8
	ret
	.cfi_endproc
.LFE781:
	.size	_ZNSt8_Rb_treeIiSt4pairIKilESt10_Select1stIS2_ESt4lessIiESaIS2_EE8_M_beginEv, .-_ZNSt8_Rb_treeIiSt4pairIKilESt10_Select1stIS2_ESt4lessIiESaIS2_EE8_M_beginEv
	.section	.text._ZNSt8_Rb_treeIiSt4pairIKilESt10_Select1stIS2_ESt4lessIiESaIS2_EE4findERS1_,"axG",@progbits,_ZNSt8_Rb_treeIiSt4pairIKilESt10_Select1stIS2_ESt4lessIiESaIS2_EE4findERS1_,comdat
	.align 2
	.weak	_ZNSt8_Rb_treeIiSt4pairIKilESt10_Select1stIS2_ESt4lessIiESaIS2_EE4findERS1_
	.type	_ZNSt8_Rb_treeIiSt4pairIKilESt10_Select1stIS2_ESt4lessIiESaIS2_EE4findERS1_, @function
_ZNSt8_Rb_treeIiSt4pairIKilESt10_Select1stIS2_ESt4lessIiESaIS2_EE4findERS1_:
.LFB782:
	.cfi_startproc
	.cfi_personality 0x3,__gxx_personality_v0
	.cfi_lsda 0x3,.LLSDA782
	push	rbp
	.cfi_def_cfa_offset 16
	.cfi_offset 6, -16
	mov	rbp, rsp
	.cfi_def_cfa_register 6
	push	rbx
	sub	rsp, 56
	.cfi_offset 3, -24
	mov	QWORD PTR [rbp-56], rdi
	mov	QWORD PTR [rbp-64], rsi
	mov	rax, QWORD PTR [rbp-56]
	mov	rdi, rax
	call	_ZNSt8_Rb_treeIiSt4pairIKilESt10_Select1stIS2_ESt4lessIiESaIS2_EE6_M_endEv
	mov	rbx, rax
	mov	rax, QWORD PTR [rbp-56]
	mov	rdi, rax
	call	_ZNSt8_Rb_treeIiSt4pairIKilESt10_Select1stIS2_ESt4lessIiESaIS2_EE8_M_beginEv
	mov	rsi, rax
	mov	rdx, QWORD PTR [rbp-64]
	mov	rax, QWORD PTR [rbp-56]
	mov	rcx, rdx
	mov	rdx, rbx
	mov	rdi, rax
.LEHB11:
	call	_ZNSt8_Rb_treeIiSt4pairIKilESt10_Select1stIS2_ESt4lessIiESaIS2_EE14_M_lower_boundEPSt13_Rb_tree_nodeIS2_ESB_RS1_
.LEHE11:
	mov	QWORD PTR [rbp-48], rax
	mov	ebx, 0
	mov	rax, QWORD PTR [rbp-56]
	mov	rdi, rax
.LEHB12:
	call	_ZNSt8_Rb_treeIiSt4pairIKilESt10_Select1stIS2_ESt4lessIiESaIS2_EE3endEv
	mov	QWORD PTR [rbp-32], rax
	mov	ebx, 1
	lea	rdx, [rbp-32]
	lea	rax, [rbp-48]
	mov	rsi, rdx
	mov	rdi, rax
	call	_ZNKSt17_Rb_tree_iteratorISt4pairIKilEEeqERKS3_
	test	al, al
	jne	.L88
	mov	rax, QWORD PTR [rbp-48]
	mov	rdi, rax
	call	_ZNSt8_Rb_treeIiSt4pairIKilESt10_Select1stIS2_ESt4lessIiESaIS2_EE6_S_keyEPKSt18_Rb_tree_node_base
	mov	rdx, rax
	mov	rax, QWORD PTR [rbp-56]
	mov	rcx, QWORD PTR [rbp-64]
	mov	rsi, rcx
	mov	rdi, rax
	call	_ZNKSt4lessIiEclERKiS2_
	test	al, al
	je	.L89
.L88:
	mov	rax, QWORD PTR [rbp-56]
	mov	rdi, rax
	call	_ZNSt8_Rb_treeIiSt4pairIKilESt10_Select1stIS2_ESt4lessIiESaIS2_EE3endEv
.LEHE12:
	jmp	.L90
.L89:
	mov	rax, QWORD PTR [rbp-48]
.L90:
	test	bl, bl
	jmp	.L98
.L97:
	test	bl, bl
	jmp	.L95
.L96:
.L95:
	mov	rdi, rax
.LEHB13:
	call	_Unwind_Resume
.LEHE13:
.L98:
	add	rsp, 56
	pop	rbx
	pop	rbp
	.cfi_def_cfa 7, 8
	ret
	.cfi_endproc
.LFE782:
	.section	.gcc_except_table
.LLSDA782:
	.byte	0xff
	.byte	0xff
	.byte	0x1
	.uleb128 .LLSDACSE782-.LLSDACSB782
.LLSDACSB782:
	.uleb128 .LEHB11-.LFB782
	.uleb128 .LEHE11-.LEHB11
	.uleb128 .L96-.LFB782
	.uleb128 0
	.uleb128 .LEHB12-.LFB782
	.uleb128 .LEHE12-.LEHB12
	.uleb128 .L97-.LFB782
	.uleb128 0
	.uleb128 .LEHB13-.LFB782
	.uleb128 .LEHE13-.LEHB13
	.uleb128 0
	.uleb128 0
.LLSDACSE782:
	.section	.text._ZNSt8_Rb_treeIiSt4pairIKilESt10_Select1stIS2_ESt4lessIiESaIS2_EE4findERS1_,"axG",@progbits,_ZNSt8_Rb_treeIiSt4pairIKilESt10_Select1stIS2_ESt4lessIiESaIS2_EE4findERS1_,comdat
	.size	_ZNSt8_Rb_treeIiSt4pairIKilESt10_Select1stIS2_ESt4lessIiESaIS2_EE4findERS1_, .-_ZNSt8_Rb_treeIiSt4pairIKilESt10_Select1stIS2_ESt4lessIiESaIS2_EE4findERS1_
	.section	.text._ZNSt8_Rb_treeIiSt4pairIKilESt10_Select1stIS2_ESt4lessIiESaIS2_EE3endEv,"axG",@progbits,_ZNSt8_Rb_treeIiSt4pairIKilESt10_Select1stIS2_ESt4lessIiESaIS2_EE3endEv,comdat
	.align 2
	.weak	_ZNSt8_Rb_treeIiSt4pairIKilESt10_Select1stIS2_ESt4lessIiESaIS2_EE3endEv
	.type	_ZNSt8_Rb_treeIiSt4pairIKilESt10_Select1stIS2_ESt4lessIiESaIS2_EE3endEv, @function
_ZNSt8_Rb_treeIiSt4pairIKilESt10_Select1stIS2_ESt4lessIiESaIS2_EE3endEv:
.LFB783:
	.cfi_startproc
	push	rbp
	.cfi_def_cfa_offset 16
	.cfi_offset 6, -16
	mov	rbp, rsp
	.cfi_def_cfa_register 6
	sub	rsp, 32
	mov	QWORD PTR [rbp-24], rdi
	mov	rax, QWORD PTR [rbp-24]
	lea	rdx, [rax+8]
	lea	rax, [rbp-16]
	mov	rsi, rdx
	mov	rdi, rax
	call	_ZNSt17_Rb_tree_iteratorISt4pairIKilEEC1EPSt13_Rb_tree_nodeIS2_E
	mov	rax, QWORD PTR [rbp-16]
	leave
	.cfi_def_cfa 7, 8
	ret
	.cfi_endproc
.LFE783:
	.size	_ZNSt8_Rb_treeIiSt4pairIKilESt10_Select1stIS2_ESt4lessIiESaIS2_EE3endEv, .-_ZNSt8_Rb_treeIiSt4pairIKilESt10_Select1stIS2_ESt4lessIiESaIS2_EE3endEv
	.section	.text._ZNSt3mapIilSt4lessIiESaISt4pairIKilEEE11lower_boundERS3_,"axG",@progbits,_ZNSt3mapIilSt4lessIiESaISt4pairIKilEEE11lower_boundERS3_,comdat
	.align 2
	.weak	_ZNSt3mapIilSt4lessIiESaISt4pairIKilEEE11lower_boundERS3_
	.type	_ZNSt3mapIilSt4lessIiESaISt4pairIKilEEE11lower_boundERS3_, @function
_ZNSt3mapIilSt4lessIiESaISt4pairIKilEEE11lower_boundERS3_:
.LFB784:
	.cfi_startproc
	push	rbp
	.cfi_def_cfa_offset 16
	.cfi_offset 6, -16
	mov	rbp, rsp
	.cfi_def_cfa_register 6
	sub	rsp, 16
	mov	QWORD PTR [rbp-8], rdi
	mov	QWORD PTR [rbp-16], rsi
	mov	rax, QWORD PTR [rbp-8]
	mov	rdx, QWORD PTR [rbp-16]
	mov	rsi, rdx
	mov	rdi, rax
	call	_ZNSt8_Rb_treeIiSt4pairIKilESt10_Select1stIS2_ESt4lessIiESaIS2_EE11lower_boundERS1_
	leave
	.cfi_def_cfa 7, 8
	ret
	.cfi_endproc
.LFE784:
	.size	_ZNSt3mapIilSt4lessIiESaISt4pairIKilEEE11lower_boundERS3_, .-_ZNSt3mapIilSt4lessIiESaISt4pairIKilEEE11lower_boundERS3_
	.section	.text._ZNKSt3mapIilSt4lessIiESaISt4pairIKilEEE8key_compEv,"axG",@progbits,_ZNKSt3mapIilSt4lessIiESaISt4pairIKilEEE8key_compEv,comdat
	.align 2
	.weak	_ZNKSt3mapIilSt4lessIiESaISt4pairIKilEEE8key_compEv
	.type	_ZNKSt3mapIilSt4lessIiESaISt4pairIKilEEE8key_compEv, @function
_ZNKSt3mapIilSt4lessIiESaISt4pairIKilEEE8key_compEv:
.LFB785:
	.cfi_startproc
	push	rbp
	.cfi_def_cfa_offset 16
	.cfi_offset 6, -16
	mov	rbp, rsp
	.cfi_def_cfa_register 6
	push	rbx
	sub	rsp, 24
	.cfi_offset 3, -24
	mov	QWORD PTR [rbp-24], rdi
	mov	rax, QWORD PTR [rbp-24]
	mov	rdi, rax
	call	_ZNKSt8_Rb_treeIiSt4pairIKilESt10_Select1stIS2_ESt4lessIiESaIS2_EE8key_compEv
	mov	eax, ebx
	add	rsp, 24
	pop	rbx
	pop	rbp
	.cfi_def_cfa 7, 8
	ret
	.cfi_endproc
.LFE785:
	.size	_ZNKSt3mapIilSt4lessIiESaISt4pairIKilEEE8key_compEv, .-_ZNKSt3mapIilSt4lessIiESaISt4pairIKilEEE8key_compEv
	.section	.text._ZNKSt17_Rb_tree_iteratorISt4pairIKilEEdeEv,"axG",@progbits,_ZNKSt17_Rb_tree_iteratorISt4pairIKilEEdeEv,comdat
	.align 2
	.weak	_ZNKSt17_Rb_tree_iteratorISt4pairIKilEEdeEv
	.type	_ZNKSt17_Rb_tree_iteratorISt4pairIKilEEdeEv, @function
_ZNKSt17_Rb_tree_iteratorISt4pairIKilEEdeEv:
.LFB786:
	.cfi_startproc
	push	rbp
	.cfi_def_cfa_offset 16
	.cfi_offset 6, -16
	mov	rbp, rsp
	.cfi_def_cfa_register 6
	mov	QWORD PTR [rbp-8], rdi
	mov	rax, QWORD PTR [rbp-8]
	mov	rax, QWORD PTR [rax]
	add	rax, 32
	pop	rbp
	.cfi_def_cfa 7, 8
	ret
	.cfi_endproc
.LFE786:
	.size	_ZNKSt17_Rb_tree_iteratorISt4pairIKilEEdeEv, .-_ZNKSt17_Rb_tree_iteratorISt4pairIKilEEdeEv
	.section	.text._ZNKSt4lessIiEclERKiS2_,"axG",@progbits,_ZNKSt4lessIiEclERKiS2_,comdat
	.align 2
	.weak	_ZNKSt4lessIiEclERKiS2_
	.type	_ZNKSt4lessIiEclERKiS2_, @function
_ZNKSt4lessIiEclERKiS2_:
.LFB787:
	.cfi_startproc
	push	rbp
	.cfi_def_cfa_offset 16
	.cfi_offset 6, -16
	mov	rbp, rsp
	.cfi_def_cfa_register 6
	mov	QWORD PTR [rbp-8], rdi
	mov	QWORD PTR [rbp-16], rsi
	mov	QWORD PTR [rbp-24], rdx
	mov	rax, QWORD PTR [rbp-16]
	mov	edx, DWORD PTR [rax]
	mov	rax, QWORD PTR [rbp-24]
	mov	eax, DWORD PTR [rax]
	cmp	edx, eax
	setl	al
	pop	rbp
	.cfi_def_cfa 7, 8
	ret
	.cfi_endproc
.LFE787:
	.size	_ZNKSt4lessIiEclERKiS2_, .-_ZNKSt4lessIiEclERKiS2_
	.section	.text._ZNKSt17_Rb_tree_iteratorISt4pairIKilEEeqERKS3_,"axG",@progbits,_ZNKSt17_Rb_tree_iteratorISt4pairIKilEEeqERKS3_,comdat
	.align 2
	.weak	_ZNKSt17_Rb_tree_iteratorISt4pairIKilEEeqERKS3_
	.type	_ZNKSt17_Rb_tree_iteratorISt4pairIKilEEeqERKS3_, @function
_ZNKSt17_Rb_tree_iteratorISt4pairIKilEEeqERKS3_:
.LFB788:
	.cfi_startproc
	push	rbp
	.cfi_def_cfa_offset 16
	.cfi_offset 6, -16
	mov	rbp, rsp
	.cfi_def_cfa_register 6
	mov	QWORD PTR [rbp-8], rdi
	mov	QWORD PTR [rbp-16], rsi
	mov	rax, QWORD PTR [rbp-8]
	mov	rdx, QWORD PTR [rax]
	mov	rax, QWORD PTR [rbp-16]
	mov	rax, QWORD PTR [rax]
	cmp	rdx, rax
	sete	al
	pop	rbp
	.cfi_def_cfa 7, 8
	ret
	.cfi_endproc
.LFE788:
	.size	_ZNKSt17_Rb_tree_iteratorISt4pairIKilEEeqERKS3_, .-_ZNKSt17_Rb_tree_iteratorISt4pairIKilEEeqERKS3_
	.section	.text._ZNSt4pairIKilEC2ERS0_RKl,"axG",@progbits,_ZNSt4pairIKilEC5ERS0_RKl,comdat
	.align 2
	.weak	_ZNSt4pairIKilEC2ERS0_RKl
	.type	_ZNSt4pairIKilEC2ERS0_RKl, @function
_ZNSt4pairIKilEC2ERS0_RKl:
.LFB790:
	.cfi_startproc
	push	rbp
	.cfi_def_cfa_offset 16
	.cfi_offset 6, -16
	mov	rbp, rsp
	.cfi_def_cfa_register 6
	mov	QWORD PTR [rbp-8], rdi
	mov	QWORD PTR [rbp-16], rsi
	mov	QWORD PTR [rbp-24], rdx
	mov	rax, QWORD PTR [rbp-16]
	mov	edx, DWORD PTR [rax]
	mov	rax, QWORD PTR [rbp-8]
	mov	DWORD PTR [rax], edx
	mov	rax, QWORD PTR [rbp-24]
	mov	rdx, QWORD PTR [rax]
	mov	rax, QWORD PTR [rbp-8]
	mov	QWORD PTR [rax+8], rdx
	pop	rbp
	.cfi_def_cfa 7, 8
	ret
	.cfi_endproc
.LFE790:
	.size	_ZNSt4pairIKilEC2ERS0_RKl, .-_ZNSt4pairIKilEC2ERS0_RKl
	.weak	_ZNSt4pairIKilEC1ERS0_RKl
	.set	_ZNSt4pairIKilEC1ERS0_RKl,_ZNSt4pairIKilEC2ERS0_RKl
	.section	.text._ZNSt3mapIilSt4lessIiESaISt4pairIKilEEE6insertESt17_Rb_tree_iteratorIS4_ERKS4_,"axG",@progbits,_ZNSt3mapIilSt4lessIiESaISt4pairIKilEEE6insertESt17_Rb_tree_iteratorIS4_ERKS4_,comdat
	.align 2
	.weak	_ZNSt3mapIilSt4lessIiESaISt4pairIKilEEE6insertESt17_Rb_tree_iteratorIS4_ERKS4_
	.type	_ZNSt3mapIilSt4lessIiESaISt4pairIKilEEE6insertESt17_Rb_tree_iteratorIS4_ERKS4_, @function
_ZNSt3mapIilSt4lessIiESaISt4pairIKilEEE6insertESt17_Rb_tree_iteratorIS4_ERKS4_:
.LFB792:
	.cfi_startproc
	.cfi_personality 0x3,__gxx_personality_v0
	.cfi_lsda 0x3,.LLSDA792
	push	rbp
	.cfi_def_cfa_offset 16
	.cfi_offset 6, -16
	mov	rbp, rsp
	.cfi_def_cfa_register 6
	sub	rsp, 48
	mov	QWORD PTR [rbp-24], rdi
	mov	QWORD PTR [rbp-32], rsi
	mov	QWORD PTR [rbp-40], rdx
	lea	rdx, [rbp-32]
	lea	rax, [rbp-16]
	mov	rsi, rdx
	mov	rdi, rax
	call	_ZNSt23_Rb_tree_const_iteratorISt4pairIKilEEC1ERKSt17_Rb_tree_iteratorIS2_E
	mov	rax, QWORD PTR [rbp-24]
	mov	rdx, QWORD PTR [rbp-40]
	mov	rcx, QWORD PTR [rbp-16]
	mov	rsi, rcx
	mov	rdi, rax
.LEHB14:
	call	_ZNSt8_Rb_treeIiSt4pairIKilESt10_Select1stIS2_ESt4lessIiESaIS2_EE17_M_insert_unique_ESt23_Rb_tree_const_iteratorIS2_ERKS2_
.LEHE14:
	jmp	.L116
.L115:
	mov	rdi, rax
.LEHB15:
	call	_Unwind_Resume
.LEHE15:
.L116:
	leave
	.cfi_def_cfa 7, 8
	ret
	.cfi_endproc
.LFE792:
	.section	.gcc_except_table
.LLSDA792:
	.byte	0xff
	.byte	0xff
	.byte	0x1
	.uleb128 .LLSDACSE792-.LLSDACSB792
.LLSDACSB792:
	.uleb128 .LEHB14-.LFB792
	.uleb128 .LEHE14-.LEHB14
	.uleb128 .L115-.LFB792
	.uleb128 0
	.uleb128 .LEHB15-.LFB792
	.uleb128 .LEHE15-.LEHB15
	.uleb128 0
	.uleb128 0
.LLSDACSE792:
	.section	.text._ZNSt3mapIilSt4lessIiESaISt4pairIKilEEE6insertESt17_Rb_tree_iteratorIS4_ERKS4_,"axG",@progbits,_ZNSt3mapIilSt4lessIiESaISt4pairIKilEEE6insertESt17_Rb_tree_iteratorIS4_ERKS4_,comdat
	.size	_ZNSt3mapIilSt4lessIiESaISt4pairIKilEEE6insertESt17_Rb_tree_iteratorIS4_ERKS4_, .-_ZNSt3mapIilSt4lessIiESaISt4pairIKilEEE6insertESt17_Rb_tree_iteratorIS4_ERKS4_
	.section	.text._ZNSt8_Rb_treeIiSt4pairIKilESt10_Select1stIS2_ESt4lessIiESaIS2_EE5beginEv,"axG",@progbits,_ZNSt8_Rb_treeIiSt4pairIKilESt10_Select1stIS2_ESt4lessIiESaIS2_EE5beginEv,comdat
	.align 2
	.weak	_ZNSt8_Rb_treeIiSt4pairIKilESt10_Select1stIS2_ESt4lessIiESaIS2_EE5beginEv
	.type	_ZNSt8_Rb_treeIiSt4pairIKilESt10_Select1stIS2_ESt4lessIiESaIS2_EE5beginEv, @function
_ZNSt8_Rb_treeIiSt4pairIKilESt10_Select1stIS2_ESt4lessIiESaIS2_EE5beginEv:
.LFB793:
	.cfi_startproc
	push	rbp
	.cfi_def_cfa_offset 16
	.cfi_offset 6, -16
	mov	rbp, rsp
	.cfi_def_cfa_register 6
	sub	rsp, 32
	mov	QWORD PTR [rbp-24], rdi
	mov	rax, QWORD PTR [rbp-24]
	mov	rdx, QWORD PTR [rax+24]
	lea	rax, [rbp-16]
	mov	rsi, rdx
	mov	rdi, rax
	call	_ZNSt17_Rb_tree_iteratorISt4pairIKilEEC1EPSt13_Rb_tree_nodeIS2_E
	mov	rax, QWORD PTR [rbp-16]
	leave
	.cfi_def_cfa 7, 8
	ret
	.cfi_endproc
.LFE793:
	.size	_ZNSt8_Rb_treeIiSt4pairIKilESt10_Select1stIS2_ESt4lessIiESaIS2_EE5beginEv, .-_ZNSt8_Rb_treeIiSt4pairIKilESt10_Select1stIS2_ESt4lessIiESaIS2_EE5beginEv
	.section	.text._ZSt11__addressofISt4pairIKilEEPT_RS3_,"axG",@progbits,_ZSt11__addressofISt4pairIKilEEPT_RS3_,comdat
	.weak	_ZSt11__addressofISt4pairIKilEEPT_RS3_
	.type	_ZSt11__addressofISt4pairIKilEEPT_RS3_, @function
_ZSt11__addressofISt4pairIKilEEPT_RS3_:
.LFB794:
	.cfi_startproc
	push	rbp
	.cfi_def_cfa_offset 16
	.cfi_offset 6, -16
	mov	rbp, rsp
	.cfi_def_cfa_register 6
	mov	QWORD PTR [rbp-8], rdi
	mov	rax, QWORD PTR [rbp-8]
	pop	rbp
	.cfi_def_cfa 7, 8
	ret
	.cfi_endproc
.LFE794:
	.size	_ZSt11__addressofISt4pairIKilEEPT_RS3_, .-_ZSt11__addressofISt4pairIKilEEPT_RS3_
	.section	.text._ZNSt8_Rb_treeIiSt4pairIKilESt10_Select1stIS2_ESt4lessIiESaIS2_EE13_Rb_tree_implIS6_Lb0EEC2Ev,"axG",@progbits,_ZNSt8_Rb_treeIiSt4pairIKilESt10_Select1stIS2_ESt4lessIiESaIS2_EE13_Rb_tree_implIS6_Lb0EEC5Ev,comdat
	.align 2
	.weak	_ZNSt8_Rb_treeIiSt4pairIKilESt10_Select1stIS2_ESt4lessIiESaIS2_EE13_Rb_tree_implIS6_Lb0EEC2Ev
	.type	_ZNSt8_Rb_treeIiSt4pairIKilESt10_Select1stIS2_ESt4lessIiESaIS2_EE13_Rb_tree_implIS6_Lb0EEC2Ev, @function
_ZNSt8_Rb_treeIiSt4pairIKilESt10_Select1stIS2_ESt4lessIiESaIS2_EE13_Rb_tree_implIS6_Lb0EEC2Ev:
.LFB797:
	.cfi_startproc
	push	rbp
	.cfi_def_cfa_offset 16
	.cfi_offset 6, -16
	mov	rbp, rsp
	.cfi_def_cfa_register 6
	sub	rsp, 16
	mov	QWORD PTR [rbp-8], rdi
	mov	rax, QWORD PTR [rbp-8]
	mov	rdi, rax
	call	_ZNSaISt13_Rb_tree_nodeISt4pairIKilEEEC2Ev
	mov	rax, QWORD PTR [rbp-8]
	mov	DWORD PTR [rax+8], 0
	mov	rax, QWORD PTR [rbp-8]
	mov	QWORD PTR [rax+16], 0
	mov	rax, QWORD PTR [rbp-8]
	mov	QWORD PTR [rax+24], 0
	mov	rax, QWORD PTR [rbp-8]
	mov	QWORD PTR [rax+32], 0
	mov	rax, QWORD PTR [rbp-8]
	mov	QWORD PTR [rax+40], 0
	mov	rax, QWORD PTR [rbp-8]
	mov	rdi, rax
	call	_ZNSt8_Rb_treeIiSt4pairIKilESt10_Select1stIS2_ESt4lessIiESaIS2_EE13_Rb_tree_implIS6_Lb0EE13_M_initializeEv
	leave
	.cfi_def_cfa 7, 8
	ret
	.cfi_endproc
.LFE797:
	.size	_ZNSt8_Rb_treeIiSt4pairIKilESt10_Select1stIS2_ESt4lessIiESaIS2_EE13_Rb_tree_implIS6_Lb0EEC2Ev, .-_ZNSt8_Rb_treeIiSt4pairIKilESt10_Select1stIS2_ESt4lessIiESaIS2_EE13_Rb_tree_implIS6_Lb0EEC2Ev
	.weak	_ZNSt8_Rb_treeIiSt4pairIKilESt10_Select1stIS2_ESt4lessIiESaIS2_EE13_Rb_tree_implIS6_Lb0EEC1Ev
	.set	_ZNSt8_Rb_treeIiSt4pairIKilESt10_Select1stIS2_ESt4lessIiESaIS2_EE13_Rb_tree_implIS6_Lb0EEC1Ev,_ZNSt8_Rb_treeIiSt4pairIKilESt10_Select1stIS2_ESt4lessIiESaIS2_EE13_Rb_tree_implIS6_Lb0EEC2Ev
	.section	.text._ZN9__gnu_cxx13new_allocatorISt13_Rb_tree_nodeISt4pairIKilEEED2Ev,"axG",@progbits,_ZN9__gnu_cxx13new_allocatorISt13_Rb_tree_nodeISt4pairIKilEEED5Ev,comdat
	.align 2
	.weak	_ZN9__gnu_cxx13new_allocatorISt13_Rb_tree_nodeISt4pairIKilEEED2Ev
	.type	_ZN9__gnu_cxx13new_allocatorISt13_Rb_tree_nodeISt4pairIKilEEED2Ev, @function
_ZN9__gnu_cxx13new_allocatorISt13_Rb_tree_nodeISt4pairIKilEEED2Ev:
.LFB800:
	.cfi_startproc
	push	rbp
	.cfi_def_cfa_offset 16
	.cfi_offset 6, -16
	mov	rbp, rsp
	.cfi_def_cfa_register 6
	mov	QWORD PTR [rbp-8], rdi
	pop	rbp
	.cfi_def_cfa 7, 8
	ret
	.cfi_endproc
.LFE800:
	.size	_ZN9__gnu_cxx13new_allocatorISt13_Rb_tree_nodeISt4pairIKilEEED2Ev, .-_ZN9__gnu_cxx13new_allocatorISt13_Rb_tree_nodeISt4pairIKilEEED2Ev
	.weak	_ZN9__gnu_cxx13new_allocatorISt13_Rb_tree_nodeISt4pairIKilEEED1Ev
	.set	_ZN9__gnu_cxx13new_allocatorISt13_Rb_tree_nodeISt4pairIKilEEED1Ev,_ZN9__gnu_cxx13new_allocatorISt13_Rb_tree_nodeISt4pairIKilEEED2Ev
	.section	.text._ZNSt8_Rb_treeIiSt4pairIKilESt10_Select1stIS2_ESt4lessIiESaIS2_EE8_S_rightEPSt18_Rb_tree_node_base,"axG",@progbits,_ZNSt8_Rb_treeIiSt4pairIKilESt10_Select1stIS2_ESt4lessIiESaIS2_EE8_S_rightEPSt18_Rb_tree_node_base,comdat
	.weak	_ZNSt8_Rb_treeIiSt4pairIKilESt10_Select1stIS2_ESt4lessIiESaIS2_EE8_S_rightEPSt18_Rb_tree_node_base
	.type	_ZNSt8_Rb_treeIiSt4pairIKilESt10_Select1stIS2_ESt4lessIiESaIS2_EE8_S_rightEPSt18_Rb_tree_node_base, @function
_ZNSt8_Rb_treeIiSt4pairIKilESt10_Select1stIS2_ESt4lessIiESaIS2_EE8_S_rightEPSt18_Rb_tree_node_base:
.LFB802:
	.cfi_startproc
	push	rbp
	.cfi_def_cfa_offset 16
	.cfi_offset 6, -16
	mov	rbp, rsp
	.cfi_def_cfa_register 6
	mov	QWORD PTR [rbp-8], rdi
	mov	rax, QWORD PTR [rbp-8]
	mov	rax, QWORD PTR [rax+24]
	pop	rbp
	.cfi_def_cfa 7, 8
	ret
	.cfi_endproc
.LFE802:
	.size	_ZNSt8_Rb_treeIiSt4pairIKilESt10_Select1stIS2_ESt4lessIiESaIS2_EE8_S_rightEPSt18_Rb_tree_node_base, .-_ZNSt8_Rb_treeIiSt4pairIKilESt10_Select1stIS2_ESt4lessIiESaIS2_EE8_S_rightEPSt18_Rb_tree_node_base
	.section	.text._ZNSt8_Rb_treeIiSt4pairIKilESt10_Select1stIS2_ESt4lessIiESaIS2_EE7_S_leftEPSt18_Rb_tree_node_base,"axG",@progbits,_ZNSt8_Rb_treeIiSt4pairIKilESt10_Select1stIS2_ESt4lessIiESaIS2_EE7_S_leftEPSt18_Rb_tree_node_base,comdat
	.weak	_ZNSt8_Rb_treeIiSt4pairIKilESt10_Select1stIS2_ESt4lessIiESaIS2_EE7_S_leftEPSt18_Rb_tree_node_base
	.type	_ZNSt8_Rb_treeIiSt4pairIKilESt10_Select1stIS2_ESt4lessIiESaIS2_EE7_S_leftEPSt18_Rb_tree_node_base, @function
_ZNSt8_Rb_treeIiSt4pairIKilESt10_Select1stIS2_ESt4lessIiESaIS2_EE7_S_leftEPSt18_Rb_tree_node_base:
.LFB803:
	.cfi_startproc
	push	rbp
	.cfi_def_cfa_offset 16
	.cfi_offset 6, -16
	mov	rbp, rsp
	.cfi_def_cfa_register 6
	mov	QWORD PTR [rbp-8], rdi
	mov	rax, QWORD PTR [rbp-8]
	mov	rax, QWORD PTR [rax+16]
	pop	rbp
	.cfi_def_cfa 7, 8
	ret
	.cfi_endproc
.LFE803:
	.size	_ZNSt8_Rb_treeIiSt4pairIKilESt10_Select1stIS2_ESt4lessIiESaIS2_EE7_S_leftEPSt18_Rb_tree_node_base, .-_ZNSt8_Rb_treeIiSt4pairIKilESt10_Select1stIS2_ESt4lessIiESaIS2_EE7_S_leftEPSt18_Rb_tree_node_base
	.section	.text._ZNSt8_Rb_treeIiSt4pairIKilESt10_Select1stIS2_ESt4lessIiESaIS2_EE15_M_destroy_nodeEPSt13_Rb_tree_nodeIS2_E,"axG",@progbits,_ZNSt8_Rb_treeIiSt4pairIKilESt10_Select1stIS2_ESt4lessIiESaIS2_EE15_M_destroy_nodeEPSt13_Rb_tree_nodeIS2_E,comdat
	.align 2
	.weak	_ZNSt8_Rb_treeIiSt4pairIKilESt10_Select1stIS2_ESt4lessIiESaIS2_EE15_M_destroy_nodeEPSt13_Rb_tree_nodeIS2_E
	.type	_ZNSt8_Rb_treeIiSt4pairIKilESt10_Select1stIS2_ESt4lessIiESaIS2_EE15_M_destroy_nodeEPSt13_Rb_tree_nodeIS2_E, @function
_ZNSt8_Rb_treeIiSt4pairIKilESt10_Select1stIS2_ESt4lessIiESaIS2_EE15_M_destroy_nodeEPSt13_Rb_tree_nodeIS2_E:
.LFB804:
	.cfi_startproc
	push	rbp
	.cfi_def_cfa_offset 16
	.cfi_offset 6, -16
	mov	rbp, rsp
	.cfi_def_cfa_register 6
	push	rbx
	sub	rsp, 40
	.cfi_offset 3, -24
	mov	QWORD PTR [rbp-40], rdi
	mov	QWORD PTR [rbp-48], rsi
	mov	rax, QWORD PTR [rbp-48]
	add	rax, 32
	mov	rdi, rax
	call	_ZSt11__addressofISt4pairIKilEEPT_RS3_
	mov	rbx, rax
	lea	rax, [rbp-17]
	mov	rdx, QWORD PTR [rbp-40]
	mov	rsi, rdx
	mov	rdi, rax
	call	_ZNKSt8_Rb_treeIiSt4pairIKilESt10_Select1stIS2_ESt4lessIiESaIS2_EE13get_allocatorEv
	lea	rax, [rbp-17]
	mov	rsi, rbx
	mov	rdi, rax
	call	_ZN9__gnu_cxx13new_allocatorISt4pairIKilEE7destroyEPS3_
	lea	rax, [rbp-17]
	mov	rdi, rax
	call	_ZNSaISt4pairIKilEED1Ev
	mov	rdx, QWORD PTR [rbp-48]
	mov	rax, QWORD PTR [rbp-40]
	mov	rsi, rdx
	mov	rdi, rax
	call	_ZNSt8_Rb_treeIiSt4pairIKilESt10_Select1stIS2_ESt4lessIiESaIS2_EE11_M_put_nodeEPSt13_Rb_tree_nodeIS2_E
	add	rsp, 40
	pop	rbx
	pop	rbp
	.cfi_def_cfa 7, 8
	ret
	.cfi_endproc
.LFE804:
	.size	_ZNSt8_Rb_treeIiSt4pairIKilESt10_Select1stIS2_ESt4lessIiESaIS2_EE15_M_destroy_nodeEPSt13_Rb_tree_nodeIS2_E, .-_ZNSt8_Rb_treeIiSt4pairIKilESt10_Select1stIS2_ESt4lessIiESaIS2_EE15_M_destroy_nodeEPSt13_Rb_tree_nodeIS2_E
	.section	.text._ZNSt8_Rb_treeIiSt4pairIKilESt10_Select1stIS2_ESt4lessIiESaIS2_EE6_M_endEv,"axG",@progbits,_ZNSt8_Rb_treeIiSt4pairIKilESt10_Select1stIS2_ESt4lessIiESaIS2_EE6_M_endEv,comdat
	.align 2
	.weak	_ZNSt8_Rb_treeIiSt4pairIKilESt10_Select1stIS2_ESt4lessIiESaIS2_EE6_M_endEv
	.type	_ZNSt8_Rb_treeIiSt4pairIKilESt10_Select1stIS2_ESt4lessIiESaIS2_EE6_M_endEv, @function
_ZNSt8_Rb_treeIiSt4pairIKilESt10_Select1stIS2_ESt4lessIiESaIS2_EE6_M_endEv:
.LFB805:
	.cfi_startproc
	push	rbp
	.cfi_def_cfa_offset 16
	.cfi_offset 6, -16
	mov	rbp, rsp
	.cfi_def_cfa_register 6
	mov	QWORD PTR [rbp-8], rdi
	mov	rax, QWORD PTR [rbp-8]
	add	rax, 8
	pop	rbp
	.cfi_def_cfa 7, 8
	ret
	.cfi_endproc
.LFE805:
	.size	_ZNSt8_Rb_treeIiSt4pairIKilESt10_Select1stIS2_ESt4lessIiESaIS2_EE6_M_endEv, .-_ZNSt8_Rb_treeIiSt4pairIKilESt10_Select1stIS2_ESt4lessIiESaIS2_EE6_M_endEv
	.section	.text._ZNSt8_Rb_treeIiSt4pairIKilESt10_Select1stIS2_ESt4lessIiESaIS2_EE14_M_lower_boundEPSt13_Rb_tree_nodeIS2_ESB_RS1_,"axG",@progbits,_ZNSt8_Rb_treeIiSt4pairIKilESt10_Select1stIS2_ESt4lessIiESaIS2_EE14_M_lower_boundEPSt13_Rb_tree_nodeIS2_ESB_RS1_,comdat
	.align 2
	.weak	_ZNSt8_Rb_treeIiSt4pairIKilESt10_Select1stIS2_ESt4lessIiESaIS2_EE14_M_lower_boundEPSt13_Rb_tree_nodeIS2_ESB_RS1_
	.type	_ZNSt8_Rb_treeIiSt4pairIKilESt10_Select1stIS2_ESt4lessIiESaIS2_EE14_M_lower_boundEPSt13_Rb_tree_nodeIS2_ESB_RS1_, @function
_ZNSt8_Rb_treeIiSt4pairIKilESt10_Select1stIS2_ESt4lessIiESaIS2_EE14_M_lower_boundEPSt13_Rb_tree_nodeIS2_ESB_RS1_:
.LFB806:
	.cfi_startproc
	push	rbp
	.cfi_def_cfa_offset 16
	.cfi_offset 6, -16
	mov	rbp, rsp
	.cfi_def_cfa_register 6
	sub	rsp, 48
	mov	QWORD PTR [rbp-24], rdi
	mov	QWORD PTR [rbp-32], rsi
	mov	QWORD PTR [rbp-40], rdx
	mov	QWORD PTR [rbp-48], rcx
	jmp	.L132
.L134:
	mov	rax, QWORD PTR [rbp-32]
	mov	rdi, rax
	call	_ZNSt8_Rb_treeIiSt4pairIKilESt10_Select1stIS2_ESt4lessIiESaIS2_EE6_S_keyEPKSt13_Rb_tree_nodeIS2_E
	mov	rcx, rax
	mov	rax, QWORD PTR [rbp-24]
	mov	rdx, QWORD PTR [rbp-48]
	mov	rsi, rcx
	mov	rdi, rax
	call	_ZNKSt4lessIiEclERKiS2_
	xor	eax, 1
	test	al, al
	je	.L133
	mov	rax, QWORD PTR [rbp-32]
	mov	QWORD PTR [rbp-40], rax
	mov	rax, QWORD PTR [rbp-32]
	mov	rdi, rax
	call	_ZNSt8_Rb_treeIiSt4pairIKilESt10_Select1stIS2_ESt4lessIiESaIS2_EE7_S_leftEPSt18_Rb_tree_node_base
	mov	QWORD PTR [rbp-32], rax
	jmp	.L132
.L133:
	mov	rax, QWORD PTR [rbp-32]
	mov	rdi, rax
	call	_ZNSt8_Rb_treeIiSt4pairIKilESt10_Select1stIS2_ESt4lessIiESaIS2_EE8_S_rightEPSt18_Rb_tree_node_base
	mov	QWORD PTR [rbp-32], rax
.L132:
	cmp	QWORD PTR [rbp-32], 0
	setne	al
	test	al, al
	jne	.L134
	mov	rdx, QWORD PTR [rbp-40]
	lea	rax, [rbp-16]
	mov	rsi, rdx
	mov	rdi, rax
	call	_ZNSt17_Rb_tree_iteratorISt4pairIKilEEC1EPSt13_Rb_tree_nodeIS2_E
	mov	rax, QWORD PTR [rbp-16]
	leave
	.cfi_def_cfa 7, 8
	ret
	.cfi_endproc
.LFE806:
	.size	_ZNSt8_Rb_treeIiSt4pairIKilESt10_Select1stIS2_ESt4lessIiESaIS2_EE14_M_lower_boundEPSt13_Rb_tree_nodeIS2_ESB_RS1_, .-_ZNSt8_Rb_treeIiSt4pairIKilESt10_Select1stIS2_ESt4lessIiESaIS2_EE14_M_lower_boundEPSt13_Rb_tree_nodeIS2_ESB_RS1_
	.section	.text._ZNSt8_Rb_treeIiSt4pairIKilESt10_Select1stIS2_ESt4lessIiESaIS2_EE6_S_keyEPKSt18_Rb_tree_node_base,"axG",@progbits,_ZNSt8_Rb_treeIiSt4pairIKilESt10_Select1stIS2_ESt4lessIiESaIS2_EE6_S_keyEPKSt18_Rb_tree_node_base,comdat
	.weak	_ZNSt8_Rb_treeIiSt4pairIKilESt10_Select1stIS2_ESt4lessIiESaIS2_EE6_S_keyEPKSt18_Rb_tree_node_base
	.type	_ZNSt8_Rb_treeIiSt4pairIKilESt10_Select1stIS2_ESt4lessIiESaIS2_EE6_S_keyEPKSt18_Rb_tree_node_base, @function
_ZNSt8_Rb_treeIiSt4pairIKilESt10_Select1stIS2_ESt4lessIiESaIS2_EE6_S_keyEPKSt18_Rb_tree_node_base:
.LFB807:
	.cfi_startproc
	push	rbp
	.cfi_def_cfa_offset 16
	.cfi_offset 6, -16
	mov	rbp, rsp
	.cfi_def_cfa_register 6
	sub	rsp, 32
	mov	QWORD PTR [rbp-24], rdi
	mov	rax, QWORD PTR [rbp-24]
	mov	rdi, rax
	call	_ZNSt8_Rb_treeIiSt4pairIKilESt10_Select1stIS2_ESt4lessIiESaIS2_EE8_S_valueEPKSt18_Rb_tree_node_base
	mov	rdx, rax
	lea	rax, [rbp-1]
	mov	rsi, rdx
	mov	rdi, rax
	call	_ZNKSt10_Select1stISt4pairIKilEEclERKS2_
	leave
	.cfi_def_cfa 7, 8
	ret
	.cfi_endproc
.LFE807:
	.size	_ZNSt8_Rb_treeIiSt4pairIKilESt10_Select1stIS2_ESt4lessIiESaIS2_EE6_S_keyEPKSt18_Rb_tree_node_base, .-_ZNSt8_Rb_treeIiSt4pairIKilESt10_Select1stIS2_ESt4lessIiESaIS2_EE6_S_keyEPKSt18_Rb_tree_node_base
	.section	.text._ZNSt17_Rb_tree_iteratorISt4pairIKilEEC2EPSt13_Rb_tree_nodeIS2_E,"axG",@progbits,_ZNSt17_Rb_tree_iteratorISt4pairIKilEEC5EPSt13_Rb_tree_nodeIS2_E,comdat
	.align 2
	.weak	_ZNSt17_Rb_tree_iteratorISt4pairIKilEEC2EPSt13_Rb_tree_nodeIS2_E
	.type	_ZNSt17_Rb_tree_iteratorISt4pairIKilEEC2EPSt13_Rb_tree_nodeIS2_E, @function
_ZNSt17_Rb_tree_iteratorISt4pairIKilEEC2EPSt13_Rb_tree_nodeIS2_E:
.LFB809:
	.cfi_startproc
	push	rbp
	.cfi_def_cfa_offset 16
	.cfi_offset 6, -16
	mov	rbp, rsp
	.cfi_def_cfa_register 6
	mov	QWORD PTR [rbp-8], rdi
	mov	QWORD PTR [rbp-16], rsi
	mov	rax, QWORD PTR [rbp-8]
	mov	rdx, QWORD PTR [rbp-16]
	mov	QWORD PTR [rax], rdx
	pop	rbp
	.cfi_def_cfa 7, 8
	ret
	.cfi_endproc
.LFE809:
	.size	_ZNSt17_Rb_tree_iteratorISt4pairIKilEEC2EPSt13_Rb_tree_nodeIS2_E, .-_ZNSt17_Rb_tree_iteratorISt4pairIKilEEC2EPSt13_Rb_tree_nodeIS2_E
	.weak	_ZNSt17_Rb_tree_iteratorISt4pairIKilEEC1EPSt13_Rb_tree_nodeIS2_E
	.set	_ZNSt17_Rb_tree_iteratorISt4pairIKilEEC1EPSt13_Rb_tree_nodeIS2_E,_ZNSt17_Rb_tree_iteratorISt4pairIKilEEC2EPSt13_Rb_tree_nodeIS2_E
	.section	.text._ZNSt8_Rb_treeIiSt4pairIKilESt10_Select1stIS2_ESt4lessIiESaIS2_EE11lower_boundERS1_,"axG",@progbits,_ZNSt8_Rb_treeIiSt4pairIKilESt10_Select1stIS2_ESt4lessIiESaIS2_EE11lower_boundERS1_,comdat
	.align 2
	.weak	_ZNSt8_Rb_treeIiSt4pairIKilESt10_Select1stIS2_ESt4lessIiESaIS2_EE11lower_boundERS1_
	.type	_ZNSt8_Rb_treeIiSt4pairIKilESt10_Select1stIS2_ESt4lessIiESaIS2_EE11lower_boundERS1_, @function
_ZNSt8_Rb_treeIiSt4pairIKilESt10_Select1stIS2_ESt4lessIiESaIS2_EE11lower_boundERS1_:
.LFB811:
	.cfi_startproc
	push	rbp
	.cfi_def_cfa_offset 16
	.cfi_offset 6, -16
	mov	rbp, rsp
	.cfi_def_cfa_register 6
	push	rbx
	sub	rsp, 24
	.cfi_offset 3, -24
	mov	QWORD PTR [rbp-24], rdi
	mov	QWORD PTR [rbp-32], rsi
	mov	rax, QWORD PTR [rbp-24]
	mov	rdi, rax
	call	_ZNSt8_Rb_treeIiSt4pairIKilESt10_Select1stIS2_ESt4lessIiESaIS2_EE6_M_endEv
	mov	rbx, rax
	mov	rax, QWORD PTR [rbp-24]
	mov	rdi, rax
	call	_ZNSt8_Rb_treeIiSt4pairIKilESt10_Select1stIS2_ESt4lessIiESaIS2_EE8_M_beginEv
	mov	rsi, rax
	mov	rdx, QWORD PTR [rbp-32]
	mov	rax, QWORD PTR [rbp-24]
	mov	rcx, rdx
	mov	rdx, rbx
	mov	rdi, rax
	call	_ZNSt8_Rb_treeIiSt4pairIKilESt10_Select1stIS2_ESt4lessIiESaIS2_EE14_M_lower_boundEPSt13_Rb_tree_nodeIS2_ESB_RS1_
	add	rsp, 24
	pop	rbx
	pop	rbp
	.cfi_def_cfa 7, 8
	ret
	.cfi_endproc
.LFE811:
	.size	_ZNSt8_Rb_treeIiSt4pairIKilESt10_Select1stIS2_ESt4lessIiESaIS2_EE11lower_boundERS1_, .-_ZNSt8_Rb_treeIiSt4pairIKilESt10_Select1stIS2_ESt4lessIiESaIS2_EE11lower_boundERS1_
	.section	.text._ZNKSt8_Rb_treeIiSt4pairIKilESt10_Select1stIS2_ESt4lessIiESaIS2_EE8key_compEv,"axG",@progbits,_ZNKSt8_Rb_treeIiSt4pairIKilESt10_Select1stIS2_ESt4lessIiESaIS2_EE8key_compEv,comdat
	.align 2
	.weak	_ZNKSt8_Rb_treeIiSt4pairIKilESt10_Select1stIS2_ESt4lessIiESaIS2_EE8key_compEv
	.type	_ZNKSt8_Rb_treeIiSt4pairIKilESt10_Select1stIS2_ESt4lessIiESaIS2_EE8key_compEv, @function
_ZNKSt8_Rb_treeIiSt4pairIKilESt10_Select1stIS2_ESt4lessIiESaIS2_EE8key_compEv:
.LFB812:
	.cfi_startproc
	push	rbp
	.cfi_def_cfa_offset 16
	.cfi_offset 6, -16
	mov	rbp, rsp
	.cfi_def_cfa_register 6
	mov	QWORD PTR [rbp-8], rdi
	pop	rbp
	.cfi_def_cfa 7, 8
	ret
	.cfi_endproc
.LFE812:
	.size	_ZNKSt8_Rb_treeIiSt4pairIKilESt10_Select1stIS2_ESt4lessIiESaIS2_EE8key_compEv, .-_ZNKSt8_Rb_treeIiSt4pairIKilESt10_Select1stIS2_ESt4lessIiESaIS2_EE8key_compEv
	.section	.text._ZNSt8_Rb_treeIiSt4pairIKilESt10_Select1stIS2_ESt4lessIiESaIS2_EE17_M_insert_unique_ESt23_Rb_tree_const_iteratorIS2_ERKS2_,"axG",@progbits,_ZNSt8_Rb_treeIiSt4pairIKilESt10_Select1stIS2_ESt4lessIiESaIS2_EE17_M_insert_unique_ESt23_Rb_tree_const_iteratorIS2_ERKS2_,comdat
	.align 2
	.weak	_ZNSt8_Rb_treeIiSt4pairIKilESt10_Select1stIS2_ESt4lessIiESaIS2_EE17_M_insert_unique_ESt23_Rb_tree_const_iteratorIS2_ERKS2_
	.type	_ZNSt8_Rb_treeIiSt4pairIKilESt10_Select1stIS2_ESt4lessIiESaIS2_EE17_M_insert_unique_ESt23_Rb_tree_const_iteratorIS2_ERKS2_, @function
_ZNSt8_Rb_treeIiSt4pairIKilESt10_Select1stIS2_ESt4lessIiESaIS2_EE17_M_insert_unique_ESt23_Rb_tree_const_iteratorIS2_ERKS2_:
.LFB813:
	.cfi_startproc
	.cfi_personality 0x3,__gxx_personality_v0
	.cfi_lsda 0x3,.LLSDA813
	push	rbp
	.cfi_def_cfa_offset 16
	.cfi_offset 6, -16
	mov	rbp, rsp
	.cfi_def_cfa_register 6
	push	r12
	push	rbx
	sub	rsp, 80
	.cfi_offset 12, -24
	.cfi_offset 3, -32
	mov	QWORD PTR [rbp-56], rdi
	mov	QWORD PTR [rbp-64], rsi
	mov	QWORD PTR [rbp-72], rdx
	mov	rbx, QWORD PTR [rbp-64]
	mov	rax, QWORD PTR [rbp-56]
	mov	rdi, rax
	call	_ZNSt8_Rb_treeIiSt4pairIKilESt10_Select1stIS2_ESt4lessIiESaIS2_EE6_M_endEv
	cmp	rbx, rax
	sete	al
	test	al, al
	je	.L144
	mov	ebx, 0
	mov	rax, QWORD PTR [rbp-56]
	mov	rdi, rax
	call	_ZNKSt8_Rb_treeIiSt4pairIKilESt10_Select1stIS2_ESt4lessIiESaIS2_EE4sizeEv
	test	rax, rax
	je	.L145
	mov	ebx, 1
	mov	rdx, QWORD PTR [rbp-72]
	lea	rax, [rbp-48]
	mov	rsi, rdx
	mov	rdi, rax
	call	_ZNKSt10_Select1stISt4pairIKilEEclERKS2_
	mov	r12, rax
	mov	rax, QWORD PTR [rbp-56]
	mov	rdi, rax
	call	_ZNSt8_Rb_treeIiSt4pairIKilESt10_Select1stIS2_ESt4lessIiESaIS2_EE12_M_rightmostEv
	mov	rax, QWORD PTR [rax]
	mov	rdi, rax
	call	_ZNSt8_Rb_treeIiSt4pairIKilESt10_Select1stIS2_ESt4lessIiESaIS2_EE6_S_keyEPKSt18_Rb_tree_node_base
	mov	rcx, rax
	mov	rax, QWORD PTR [rbp-56]
	mov	rdx, r12
	mov	rsi, rcx
	mov	rdi, rax
	call	_ZNKSt4lessIiEclERKiS2_
	test	al, al
	je	.L145
	mov	eax, 1
	jmp	.L146
.L145:
	mov	eax, 0
.L146:
	test	bl, bl
	test	al, al
	je	.L148
	mov	rax, QWORD PTR [rbp-56]
	mov	rdi, rax
	call	_ZNSt8_Rb_treeIiSt4pairIKilESt10_Select1stIS2_ESt4lessIiESaIS2_EE12_M_rightmostEv
	mov	rdx, QWORD PTR [rax]
	mov	rcx, QWORD PTR [rbp-72]
	mov	rax, QWORD PTR [rbp-56]
	mov	esi, 0
	mov	rdi, rax
.LEHB16:
	call	_ZNSt8_Rb_treeIiSt4pairIKilESt10_Select1stIS2_ESt4lessIiESaIS2_EE10_M_insert_EPKSt18_Rb_tree_node_baseSB_RKS2_
	jmp	.L149
.L148:
	mov	rdx, QWORD PTR [rbp-72]
	mov	rax, QWORD PTR [rbp-56]
	mov	rsi, rdx
	mov	rdi, rax
	call	_ZNSt8_Rb_treeIiSt4pairIKilESt10_Select1stIS2_ESt4lessIiESaIS2_EE16_M_insert_uniqueERKS2_
.LEHE16:
	mov	rcx, rax
	mov	eax, edx
	mov	QWORD PTR [rbp-96], rcx
	mov	DWORD PTR [rbp-88], eax
	mov	rax, QWORD PTR [rbp-96]
	mov	QWORD PTR [rbp-32], rax
	mov	rax, QWORD PTR [rbp-88]
	mov	QWORD PTR [rbp-24], rax
	mov	rax, QWORD PTR [rbp-32]
	jmp	.L149
.L144:
	mov	rax, QWORD PTR [rbp-64]
	mov	rdi, rax
	call	_ZNSt8_Rb_treeIiSt4pairIKilESt10_Select1stIS2_ESt4lessIiESaIS2_EE6_S_keyEPKSt18_Rb_tree_node_base
	mov	rbx, rax
	mov	rdx, QWORD PTR [rbp-72]
	lea	rax, [rbp-32]
	mov	rsi, rdx
	mov	rdi, rax
	call	_ZNKSt10_Select1stISt4pairIKilEEclERKS2_
	mov	rcx, rax
	mov	rax, QWORD PTR [rbp-56]
	mov	rdx, rbx
	mov	rsi, rcx
	mov	rdi, rax
	call	_ZNKSt4lessIiEclERKiS2_
	test	al, al
	je	.L150
	mov	rax, QWORD PTR [rbp-64]
	mov	QWORD PTR [rbp-48], rax
	mov	rbx, QWORD PTR [rbp-64]
	mov	rax, QWORD PTR [rbp-56]
	mov	rdi, rax
	call	_ZNSt8_Rb_treeIiSt4pairIKilESt10_Select1stIS2_ESt4lessIiESaIS2_EE11_M_leftmostEv
	mov	rax, QWORD PTR [rax]
	cmp	rbx, rax
	sete	al
	test	al, al
	je	.L151
	mov	rax, QWORD PTR [rbp-56]
	mov	rdi, rax
	call	_ZNSt8_Rb_treeIiSt4pairIKilESt10_Select1stIS2_ESt4lessIiESaIS2_EE11_M_leftmostEv
	mov	rbx, QWORD PTR [rax]
	mov	rax, QWORD PTR [rbp-56]
	mov	rdi, rax
	call	_ZNSt8_Rb_treeIiSt4pairIKilESt10_Select1stIS2_ESt4lessIiESaIS2_EE11_M_leftmostEv
	mov	rsi, QWORD PTR [rax]
	mov	rdx, QWORD PTR [rbp-72]
	mov	rax, QWORD PTR [rbp-56]
	mov	rcx, rdx
	mov	rdx, rbx
	mov	rdi, rax
.LEHB17:
	call	_ZNSt8_Rb_treeIiSt4pairIKilESt10_Select1stIS2_ESt4lessIiESaIS2_EE10_M_insert_EPKSt18_Rb_tree_node_baseSB_RKS2_
	jmp	.L149
.L151:
	mov	rdx, QWORD PTR [rbp-72]
	lea	rax, [rbp-32]
	mov	rsi, rdx
	mov	rdi, rax
	call	_ZNKSt10_Select1stISt4pairIKilEEclERKS2_
	mov	rbx, rax
	lea	rax, [rbp-48]
	mov	rdi, rax
	call	_ZNSt23_Rb_tree_const_iteratorISt4pairIKilEEmmEv
	mov	rax, QWORD PTR [rax]
	mov	rdi, rax
	call	_ZNSt8_Rb_treeIiSt4pairIKilESt10_Select1stIS2_ESt4lessIiESaIS2_EE6_S_keyEPKSt18_Rb_tree_node_base
	mov	rcx, rax
	mov	rax, QWORD PTR [rbp-56]
	mov	rdx, rbx
	mov	rsi, rcx
	mov	rdi, rax
	call	_ZNKSt4lessIiEclERKiS2_
	test	al, al
	je	.L153
	mov	rax, QWORD PTR [rbp-48]
	mov	rdi, rax
	call	_ZNSt8_Rb_treeIiSt4pairIKilESt10_Select1stIS2_ESt4lessIiESaIS2_EE8_S_rightEPKSt18_Rb_tree_node_base
	test	rax, rax
	sete	al
	test	al, al
	je	.L154
	mov	rdx, QWORD PTR [rbp-48]
	mov	rcx, QWORD PTR [rbp-72]
	mov	rax, QWORD PTR [rbp-56]
	mov	esi, 0
	mov	rdi, rax
	call	_ZNSt8_Rb_treeIiSt4pairIKilESt10_Select1stIS2_ESt4lessIiESaIS2_EE10_M_insert_EPKSt18_Rb_tree_node_baseSB_RKS2_
	jmp	.L149
.L154:
	mov	rdx, QWORD PTR [rbp-64]
	mov	rsi, QWORD PTR [rbp-64]
	mov	rcx, QWORD PTR [rbp-72]
	mov	rax, QWORD PTR [rbp-56]
	mov	rdi, rax
	call	_ZNSt8_Rb_treeIiSt4pairIKilESt10_Select1stIS2_ESt4lessIiESaIS2_EE10_M_insert_EPKSt18_Rb_tree_node_baseSB_RKS2_
	jmp	.L149
.L153:
	mov	rdx, QWORD PTR [rbp-72]
	mov	rax, QWORD PTR [rbp-56]
	mov	rsi, rdx
	mov	rdi, rax
	call	_ZNSt8_Rb_treeIiSt4pairIKilESt10_Select1stIS2_ESt4lessIiESaIS2_EE16_M_insert_uniqueERKS2_
.LEHE17:
	mov	rcx, rax
	mov	eax, edx
	mov	QWORD PTR [rbp-96], rcx
	mov	DWORD PTR [rbp-88], eax
	mov	rax, QWORD PTR [rbp-96]
	mov	QWORD PTR [rbp-32], rax
	mov	rax, QWORD PTR [rbp-88]
	mov	QWORD PTR [rbp-24], rax
	mov	rax, QWORD PTR [rbp-32]
	jmp	.L149
.L150:
	mov	rdx, QWORD PTR [rbp-72]
	lea	rax, [rbp-32]
	mov	rsi, rdx
	mov	rdi, rax
	call	_ZNKSt10_Select1stISt4pairIKilEEclERKS2_
	mov	rbx, rax
	mov	rax, QWORD PTR [rbp-64]
	mov	rdi, rax
	call	_ZNSt8_Rb_treeIiSt4pairIKilESt10_Select1stIS2_ESt4lessIiESaIS2_EE6_S_keyEPKSt18_Rb_tree_node_base
	mov	rcx, rax
	mov	rax, QWORD PTR [rbp-56]
	mov	rdx, rbx
	mov	rsi, rcx
	mov	rdi, rax
	call	_ZNKSt4lessIiEclERKiS2_
	test	al, al
	je	.L155
	mov	rax, QWORD PTR [rbp-64]
	mov	QWORD PTR [rbp-48], rax
	mov	rbx, QWORD PTR [rbp-64]
	mov	rax, QWORD PTR [rbp-56]
	mov	rdi, rax
	call	_ZNSt8_Rb_treeIiSt4pairIKilESt10_Select1stIS2_ESt4lessIiESaIS2_EE12_M_rightmostEv
	mov	rax, QWORD PTR [rax]
	cmp	rbx, rax
	sete	al
	test	al, al
	je	.L156
	mov	rax, QWORD PTR [rbp-56]
	mov	rdi, rax
	call	_ZNSt8_Rb_treeIiSt4pairIKilESt10_Select1stIS2_ESt4lessIiESaIS2_EE12_M_rightmostEv
	mov	rdx, QWORD PTR [rax]
	mov	rcx, QWORD PTR [rbp-72]
	mov	rax, QWORD PTR [rbp-56]
	mov	esi, 0
	mov	rdi, rax
.LEHB18:
	call	_ZNSt8_Rb_treeIiSt4pairIKilESt10_Select1stIS2_ESt4lessIiESaIS2_EE10_M_insert_EPKSt18_Rb_tree_node_baseSB_RKS2_
	jmp	.L149
.L156:
	lea	rax, [rbp-48]
	mov	rdi, rax
	call	_ZNSt23_Rb_tree_const_iteratorISt4pairIKilEEppEv
	mov	rax, QWORD PTR [rax]
	mov	rdi, rax
	call	_ZNSt8_Rb_treeIiSt4pairIKilESt10_Select1stIS2_ESt4lessIiESaIS2_EE6_S_keyEPKSt18_Rb_tree_node_base
	mov	rbx, rax
	mov	rdx, QWORD PTR [rbp-72]
	lea	rax, [rbp-32]
	mov	rsi, rdx
	mov	rdi, rax
	call	_ZNKSt10_Select1stISt4pairIKilEEclERKS2_
	mov	rcx, rax
	mov	rax, QWORD PTR [rbp-56]
	mov	rdx, rbx
	mov	rsi, rcx
	mov	rdi, rax
	call	_ZNKSt4lessIiEclERKiS2_
	test	al, al
	je	.L158
	mov	rax, QWORD PTR [rbp-64]
	mov	rdi, rax
	call	_ZNSt8_Rb_treeIiSt4pairIKilESt10_Select1stIS2_ESt4lessIiESaIS2_EE8_S_rightEPKSt18_Rb_tree_node_base
	test	rax, rax
	sete	al
	test	al, al
	je	.L159
	mov	rdx, QWORD PTR [rbp-64]
	mov	rcx, QWORD PTR [rbp-72]
	mov	rax, QWORD PTR [rbp-56]
	mov	esi, 0
	mov	rdi, rax
	call	_ZNSt8_Rb_treeIiSt4pairIKilESt10_Select1stIS2_ESt4lessIiESaIS2_EE10_M_insert_EPKSt18_Rb_tree_node_baseSB_RKS2_
	jmp	.L149
.L159:
	mov	rdx, QWORD PTR [rbp-48]
	mov	rsi, QWORD PTR [rbp-48]
	mov	rcx, QWORD PTR [rbp-72]
	mov	rax, QWORD PTR [rbp-56]
	mov	rdi, rax
	call	_ZNSt8_Rb_treeIiSt4pairIKilESt10_Select1stIS2_ESt4lessIiESaIS2_EE10_M_insert_EPKSt18_Rb_tree_node_baseSB_RKS2_
	jmp	.L149
.L158:
	mov	rdx, QWORD PTR [rbp-72]
	mov	rax, QWORD PTR [rbp-56]
	mov	rsi, rdx
	mov	rdi, rax
	call	_ZNSt8_Rb_treeIiSt4pairIKilESt10_Select1stIS2_ESt4lessIiESaIS2_EE16_M_insert_uniqueERKS2_
.LEHE18:
	mov	rcx, rax
	mov	eax, edx
	mov	QWORD PTR [rbp-96], rcx
	mov	DWORD PTR [rbp-88], eax
	mov	rax, QWORD PTR [rbp-96]
	mov	QWORD PTR [rbp-32], rax
	mov	rax, QWORD PTR [rbp-88]
	mov	QWORD PTR [rbp-24], rax
	mov	rax, QWORD PTR [rbp-32]
	jmp	.L149
.L155:
	lea	rax, [rbp-64]
	mov	rdi, rax
	call	_ZNKSt23_Rb_tree_const_iteratorISt4pairIKilEE13_M_const_castEv
.L149:
	jmp	.L164
.L162:
	mov	rdi, rax
.LEHB19:
	call	_Unwind_Resume
.L163:
	mov	rdi, rax
	call	_Unwind_Resume
.LEHE19:
.L164:
	add	rsp, 80
	pop	rbx
	pop	r12
	pop	rbp
	.cfi_def_cfa 7, 8
	ret
	.cfi_endproc
.LFE813:
	.section	.gcc_except_table
.LLSDA813:
	.byte	0xff
	.byte	0xff
	.byte	0x1
	.uleb128 .LLSDACSE813-.LLSDACSB813
.LLSDACSB813:
	.uleb128 .LEHB16-.LFB813
	.uleb128 .LEHE16-.LEHB16
	.uleb128 0
	.uleb128 0
	.uleb128 .LEHB17-.LFB813
	.uleb128 .LEHE17-.LEHB17
	.uleb128 .L162-.LFB813
	.uleb128 0
	.uleb128 .LEHB18-.LFB813
	.uleb128 .LEHE18-.LEHB18
	.uleb128 .L163-.LFB813
	.uleb128 0
	.uleb128 .LEHB19-.LFB813
	.uleb128 .LEHE19-.LEHB19
	.uleb128 0
	.uleb128 0
.LLSDACSE813:
	.section	.text._ZNSt8_Rb_treeIiSt4pairIKilESt10_Select1stIS2_ESt4lessIiESaIS2_EE17_M_insert_unique_ESt23_Rb_tree_const_iteratorIS2_ERKS2_,"axG",@progbits,_ZNSt8_Rb_treeIiSt4pairIKilESt10_Select1stIS2_ESt4lessIiESaIS2_EE17_M_insert_unique_ESt23_Rb_tree_const_iteratorIS2_ERKS2_,comdat
	.size	_ZNSt8_Rb_treeIiSt4pairIKilESt10_Select1stIS2_ESt4lessIiESaIS2_EE17_M_insert_unique_ESt23_Rb_tree_const_iteratorIS2_ERKS2_, .-_ZNSt8_Rb_treeIiSt4pairIKilESt10_Select1stIS2_ESt4lessIiESaIS2_EE17_M_insert_unique_ESt23_Rb_tree_const_iteratorIS2_ERKS2_
	.section	.text._ZNSaISt13_Rb_tree_nodeISt4pairIKilEEEC2Ev,"axG",@progbits,_ZNSaISt13_Rb_tree_nodeISt4pairIKilEEEC5Ev,comdat
	.align 2
	.weak	_ZNSaISt13_Rb_tree_nodeISt4pairIKilEEEC2Ev
	.type	_ZNSaISt13_Rb_tree_nodeISt4pairIKilEEEC2Ev, @function
_ZNSaISt13_Rb_tree_nodeISt4pairIKilEEEC2Ev:
.LFB815:
	.cfi_startproc
	push	rbp
	.cfi_def_cfa_offset 16
	.cfi_offset 6, -16
	mov	rbp, rsp
	.cfi_def_cfa_register 6
	sub	rsp, 16
	mov	QWORD PTR [rbp-8], rdi
	mov	rax, QWORD PTR [rbp-8]
	mov	rdi, rax
	call	_ZN9__gnu_cxx13new_allocatorISt13_Rb_tree_nodeISt4pairIKilEEEC2Ev
	leave
	.cfi_def_cfa 7, 8
	ret
	.cfi_endproc
.LFE815:
	.size	_ZNSaISt13_Rb_tree_nodeISt4pairIKilEEEC2Ev, .-_ZNSaISt13_Rb_tree_nodeISt4pairIKilEEEC2Ev
	.weak	_ZNSaISt13_Rb_tree_nodeISt4pairIKilEEEC1Ev
	.set	_ZNSaISt13_Rb_tree_nodeISt4pairIKilEEEC1Ev,_ZNSaISt13_Rb_tree_nodeISt4pairIKilEEEC2Ev
	.section	.text._ZNSt8_Rb_treeIiSt4pairIKilESt10_Select1stIS2_ESt4lessIiESaIS2_EE13_Rb_tree_implIS6_Lb0EE13_M_initializeEv,"axG",@progbits,_ZNSt8_Rb_treeIiSt4pairIKilESt10_Select1stIS2_ESt4lessIiESaIS2_EE13_Rb_tree_implIS6_Lb0EE13_M_initializeEv,comdat
	.align 2
	.weak	_ZNSt8_Rb_treeIiSt4pairIKilESt10_Select1stIS2_ESt4lessIiESaIS2_EE13_Rb_tree_implIS6_Lb0EE13_M_initializeEv
	.type	_ZNSt8_Rb_treeIiSt4pairIKilESt10_Select1stIS2_ESt4lessIiESaIS2_EE13_Rb_tree_implIS6_Lb0EE13_M_initializeEv, @function
_ZNSt8_Rb_treeIiSt4pairIKilESt10_Select1stIS2_ESt4lessIiESaIS2_EE13_Rb_tree_implIS6_Lb0EE13_M_initializeEv:
.LFB817:
	.cfi_startproc
	push	rbp
	.cfi_def_cfa_offset 16
	.cfi_offset 6, -16
	mov	rbp, rsp
	.cfi_def_cfa_register 6
	mov	QWORD PTR [rbp-8], rdi
	mov	rax, QWORD PTR [rbp-8]
	mov	DWORD PTR [rax+8], 0
	mov	rax, QWORD PTR [rbp-8]
	mov	QWORD PTR [rax+16], 0
	mov	rax, QWORD PTR [rbp-8]
	lea	rdx, [rax+8]
	mov	rax, QWORD PTR [rbp-8]
	mov	QWORD PTR [rax+24], rdx
	mov	rax, QWORD PTR [rbp-8]
	lea	rdx, [rax+8]
	mov	rax, QWORD PTR [rbp-8]
	mov	QWORD PTR [rax+32], rdx
	pop	rbp
	.cfi_def_cfa 7, 8
	ret
	.cfi_endproc
.LFE817:
	.size	_ZNSt8_Rb_treeIiSt4pairIKilESt10_Select1stIS2_ESt4lessIiESaIS2_EE13_Rb_tree_implIS6_Lb0EE13_M_initializeEv, .-_ZNSt8_Rb_treeIiSt4pairIKilESt10_Select1stIS2_ESt4lessIiESaIS2_EE13_Rb_tree_implIS6_Lb0EE13_M_initializeEv
	.section	.text._ZNKSt8_Rb_treeIiSt4pairIKilESt10_Select1stIS2_ESt4lessIiESaIS2_EE13get_allocatorEv,"axG",@progbits,_ZNKSt8_Rb_treeIiSt4pairIKilESt10_Select1stIS2_ESt4lessIiESaIS2_EE13get_allocatorEv,comdat
	.align 2
	.weak	_ZNKSt8_Rb_treeIiSt4pairIKilESt10_Select1stIS2_ESt4lessIiESaIS2_EE13get_allocatorEv
	.type	_ZNKSt8_Rb_treeIiSt4pairIKilESt10_Select1stIS2_ESt4lessIiESaIS2_EE13get_allocatorEv, @function
_ZNKSt8_Rb_treeIiSt4pairIKilESt10_Select1stIS2_ESt4lessIiESaIS2_EE13get_allocatorEv:
.LFB818:
	.cfi_startproc
	push	rbp
	.cfi_def_cfa_offset 16
	.cfi_offset 6, -16
	mov	rbp, rsp
	.cfi_def_cfa_register 6
	sub	rsp, 16
	mov	QWORD PTR [rbp-8], rdi
	mov	QWORD PTR [rbp-16], rsi
	mov	rax, QWORD PTR [rbp-16]
	mov	rdi, rax
	call	_ZNKSt8_Rb_treeIiSt4pairIKilESt10_Select1stIS2_ESt4lessIiESaIS2_EE21_M_get_Node_allocatorEv
	mov	rdx, rax
	mov	rax, QWORD PTR [rbp-8]
	mov	rsi, rdx
	mov	rdi, rax
	call	_ZNSaISt4pairIKilEEC1ISt13_Rb_tree_nodeIS1_EEERKSaIT_E
	mov	rax, QWORD PTR [rbp-8]
	leave
	.cfi_def_cfa 7, 8
	ret
	.cfi_endproc
.LFE818:
	.size	_ZNKSt8_Rb_treeIiSt4pairIKilESt10_Select1stIS2_ESt4lessIiESaIS2_EE13get_allocatorEv, .-_ZNKSt8_Rb_treeIiSt4pairIKilESt10_Select1stIS2_ESt4lessIiESaIS2_EE13get_allocatorEv
	.section	.text._ZNSaISt4pairIKilEED2Ev,"axG",@progbits,_ZNSaISt4pairIKilEED5Ev,comdat
	.align 2
	.weak	_ZNSaISt4pairIKilEED2Ev
	.type	_ZNSaISt4pairIKilEED2Ev, @function
_ZNSaISt4pairIKilEED2Ev:
.LFB820:
	.cfi_startproc
	push	rbp
	.cfi_def_cfa_offset 16
	.cfi_offset 6, -16
	mov	rbp, rsp
	.cfi_def_cfa_register 6
	sub	rsp, 16
	mov	QWORD PTR [rbp-8], rdi
	mov	rax, QWORD PTR [rbp-8]
	mov	rdi, rax
	call	_ZN9__gnu_cxx13new_allocatorISt4pairIKilEED2Ev
	leave
	.cfi_def_cfa 7, 8
	ret
	.cfi_endproc
.LFE820:
	.size	_ZNSaISt4pairIKilEED2Ev, .-_ZNSaISt4pairIKilEED2Ev
	.weak	_ZNSaISt4pairIKilEED1Ev
	.set	_ZNSaISt4pairIKilEED1Ev,_ZNSaISt4pairIKilEED2Ev
	.section	.text._ZN9__gnu_cxx13new_allocatorISt4pairIKilEE7destroyEPS3_,"axG",@progbits,_ZN9__gnu_cxx13new_allocatorISt4pairIKilEE7destroyEPS3_,comdat
	.align 2
	.weak	_ZN9__gnu_cxx13new_allocatorISt4pairIKilEE7destroyEPS3_
	.type	_ZN9__gnu_cxx13new_allocatorISt4pairIKilEE7destroyEPS3_, @function
_ZN9__gnu_cxx13new_allocatorISt4pairIKilEE7destroyEPS3_:
.LFB822:
	.cfi_startproc
	push	rbp
	.cfi_def_cfa_offset 16
	.cfi_offset 6, -16
	mov	rbp, rsp
	.cfi_def_cfa_register 6
	mov	QWORD PTR [rbp-8], rdi
	mov	QWORD PTR [rbp-16], rsi
	pop	rbp
	.cfi_def_cfa 7, 8
	ret
	.cfi_endproc
.LFE822:
	.size	_ZN9__gnu_cxx13new_allocatorISt4pairIKilEE7destroyEPS3_, .-_ZN9__gnu_cxx13new_allocatorISt4pairIKilEE7destroyEPS3_
	.section	.text._ZNSt8_Rb_treeIiSt4pairIKilESt10_Select1stIS2_ESt4lessIiESaIS2_EE11_M_put_nodeEPSt13_Rb_tree_nodeIS2_E,"axG",@progbits,_ZNSt8_Rb_treeIiSt4pairIKilESt10_Select1stIS2_ESt4lessIiESaIS2_EE11_M_put_nodeEPSt13_Rb_tree_nodeIS2_E,comdat
	.align 2
	.weak	_ZNSt8_Rb_treeIiSt4pairIKilESt10_Select1stIS2_ESt4lessIiESaIS2_EE11_M_put_nodeEPSt13_Rb_tree_nodeIS2_E
	.type	_ZNSt8_Rb_treeIiSt4pairIKilESt10_Select1stIS2_ESt4lessIiESaIS2_EE11_M_put_nodeEPSt13_Rb_tree_nodeIS2_E, @function
_ZNSt8_Rb_treeIiSt4pairIKilESt10_Select1stIS2_ESt4lessIiESaIS2_EE11_M_put_nodeEPSt13_Rb_tree_nodeIS2_E:
.LFB823:
	.cfi_startproc
	push	rbp
	.cfi_def_cfa_offset 16
	.cfi_offset 6, -16
	mov	rbp, rsp
	.cfi_def_cfa_register 6
	sub	rsp, 16
	mov	QWORD PTR [rbp-8], rdi
	mov	QWORD PTR [rbp-16], rsi
	mov	rax, QWORD PTR [rbp-8]
	mov	rcx, QWORD PTR [rbp-16]
	mov	edx, 1
	mov	rsi, rcx
	mov	rdi, rax
	call	_ZN9__gnu_cxx13new_allocatorISt13_Rb_tree_nodeISt4pairIKilEEE10deallocateEPS5_m
	leave
	.cfi_def_cfa 7, 8
	ret
	.cfi_endproc
.LFE823:
	.size	_ZNSt8_Rb_treeIiSt4pairIKilESt10_Select1stIS2_ESt4lessIiESaIS2_EE11_M_put_nodeEPSt13_Rb_tree_nodeIS2_E, .-_ZNSt8_Rb_treeIiSt4pairIKilESt10_Select1stIS2_ESt4lessIiESaIS2_EE11_M_put_nodeEPSt13_Rb_tree_nodeIS2_E
	.section	.text._ZNSt8_Rb_treeIiSt4pairIKilESt10_Select1stIS2_ESt4lessIiESaIS2_EE6_S_keyEPKSt13_Rb_tree_nodeIS2_E,"axG",@progbits,_ZNSt8_Rb_treeIiSt4pairIKilESt10_Select1stIS2_ESt4lessIiESaIS2_EE6_S_keyEPKSt13_Rb_tree_nodeIS2_E,comdat
	.weak	_ZNSt8_Rb_treeIiSt4pairIKilESt10_Select1stIS2_ESt4lessIiESaIS2_EE6_S_keyEPKSt13_Rb_tree_nodeIS2_E
	.type	_ZNSt8_Rb_treeIiSt4pairIKilESt10_Select1stIS2_ESt4lessIiESaIS2_EE6_S_keyEPKSt13_Rb_tree_nodeIS2_E, @function
_ZNSt8_Rb_treeIiSt4pairIKilESt10_Select1stIS2_ESt4lessIiESaIS2_EE6_S_keyEPKSt13_Rb_tree_nodeIS2_E:
.LFB824:
	.cfi_startproc
	push	rbp
	.cfi_def_cfa_offset 16
	.cfi_offset 6, -16
	mov	rbp, rsp
	.cfi_def_cfa_register 6
	sub	rsp, 32
	mov	QWORD PTR [rbp-24], rdi
	mov	rax, QWORD PTR [rbp-24]
	mov	rdi, rax
	call	_ZNSt8_Rb_treeIiSt4pairIKilESt10_Select1stIS2_ESt4lessIiESaIS2_EE8_S_valueEPKSt13_Rb_tree_nodeIS2_E
	mov	rdx, rax
	lea	rax, [rbp-1]
	mov	rsi, rdx
	mov	rdi, rax
	call	_ZNKSt10_Select1stISt4pairIKilEEclERKS2_
	leave
	.cfi_def_cfa 7, 8
	ret
	.cfi_endproc
.LFE824:
	.size	_ZNSt8_Rb_treeIiSt4pairIKilESt10_Select1stIS2_ESt4lessIiESaIS2_EE6_S_keyEPKSt13_Rb_tree_nodeIS2_E, .-_ZNSt8_Rb_treeIiSt4pairIKilESt10_Select1stIS2_ESt4lessIiESaIS2_EE6_S_keyEPKSt13_Rb_tree_nodeIS2_E
	.section	.text._ZNSt8_Rb_treeIiSt4pairIKilESt10_Select1stIS2_ESt4lessIiESaIS2_EE8_S_valueEPKSt18_Rb_tree_node_base,"axG",@progbits,_ZNSt8_Rb_treeIiSt4pairIKilESt10_Select1stIS2_ESt4lessIiESaIS2_EE8_S_valueEPKSt18_Rb_tree_node_base,comdat
	.weak	_ZNSt8_Rb_treeIiSt4pairIKilESt10_Select1stIS2_ESt4lessIiESaIS2_EE8_S_valueEPKSt18_Rb_tree_node_base
	.type	_ZNSt8_Rb_treeIiSt4pairIKilESt10_Select1stIS2_ESt4lessIiESaIS2_EE8_S_valueEPKSt18_Rb_tree_node_base, @function
_ZNSt8_Rb_treeIiSt4pairIKilESt10_Select1stIS2_ESt4lessIiESaIS2_EE8_S_valueEPKSt18_Rb_tree_node_base:
.LFB825:
	.cfi_startproc
	push	rbp
	.cfi_def_cfa_offset 16
	.cfi_offset 6, -16
	mov	rbp, rsp
	.cfi_def_cfa_register 6
	mov	QWORD PTR [rbp-8], rdi
	mov	rax, QWORD PTR [rbp-8]
	add	rax, 32
	pop	rbp
	.cfi_def_cfa 7, 8
	ret
	.cfi_endproc
.LFE825:
	.size	_ZNSt8_Rb_treeIiSt4pairIKilESt10_Select1stIS2_ESt4lessIiESaIS2_EE8_S_valueEPKSt18_Rb_tree_node_base, .-_ZNSt8_Rb_treeIiSt4pairIKilESt10_Select1stIS2_ESt4lessIiESaIS2_EE8_S_valueEPKSt18_Rb_tree_node_base
	.section	.text._ZNKSt10_Select1stISt4pairIKilEEclERKS2_,"axG",@progbits,_ZNKSt10_Select1stISt4pairIKilEEclERKS2_,comdat
	.align 2
	.weak	_ZNKSt10_Select1stISt4pairIKilEEclERKS2_
	.type	_ZNKSt10_Select1stISt4pairIKilEEclERKS2_, @function
_ZNKSt10_Select1stISt4pairIKilEEclERKS2_:
.LFB826:
	.cfi_startproc
	push	rbp
	.cfi_def_cfa_offset 16
	.cfi_offset 6, -16
	mov	rbp, rsp
	.cfi_def_cfa_register 6
	mov	QWORD PTR [rbp-8], rdi
	mov	QWORD PTR [rbp-16], rsi
	mov	rax, QWORD PTR [rbp-16]
	pop	rbp
	.cfi_def_cfa 7, 8
	ret
	.cfi_endproc
.LFE826:
	.size	_ZNKSt10_Select1stISt4pairIKilEEclERKS2_, .-_ZNKSt10_Select1stISt4pairIKilEEclERKS2_
	.section	.text._ZNSt8_Rb_treeIiSt4pairIKilESt10_Select1stIS2_ESt4lessIiESaIS2_EE12_M_rightmostEv,"axG",@progbits,_ZNSt8_Rb_treeIiSt4pairIKilESt10_Select1stIS2_ESt4lessIiESaIS2_EE12_M_rightmostEv,comdat
	.align 2
	.weak	_ZNSt8_Rb_treeIiSt4pairIKilESt10_Select1stIS2_ESt4lessIiESaIS2_EE12_M_rightmostEv
	.type	_ZNSt8_Rb_treeIiSt4pairIKilESt10_Select1stIS2_ESt4lessIiESaIS2_EE12_M_rightmostEv, @function
_ZNSt8_Rb_treeIiSt4pairIKilESt10_Select1stIS2_ESt4lessIiESaIS2_EE12_M_rightmostEv:
.LFB827:
	.cfi_startproc
	push	rbp
	.cfi_def_cfa_offset 16
	.cfi_offset 6, -16
	mov	rbp, rsp
	.cfi_def_cfa_register 6
	mov	QWORD PTR [rbp-8], rdi
	mov	rax, QWORD PTR [rbp-8]
	add	rax, 32
	pop	rbp
	.cfi_def_cfa 7, 8
	ret
	.cfi_endproc
.LFE827:
	.size	_ZNSt8_Rb_treeIiSt4pairIKilESt10_Select1stIS2_ESt4lessIiESaIS2_EE12_M_rightmostEv, .-_ZNSt8_Rb_treeIiSt4pairIKilESt10_Select1stIS2_ESt4lessIiESaIS2_EE12_M_rightmostEv
	.section	.text._ZNKSt8_Rb_treeIiSt4pairIKilESt10_Select1stIS2_ESt4lessIiESaIS2_EE4sizeEv,"axG",@progbits,_ZNKSt8_Rb_treeIiSt4pairIKilESt10_Select1stIS2_ESt4lessIiESaIS2_EE4sizeEv,comdat
	.align 2
	.weak	_ZNKSt8_Rb_treeIiSt4pairIKilESt10_Select1stIS2_ESt4lessIiESaIS2_EE4sizeEv
	.type	_ZNKSt8_Rb_treeIiSt4pairIKilESt10_Select1stIS2_ESt4lessIiESaIS2_EE4sizeEv, @function
_ZNKSt8_Rb_treeIiSt4pairIKilESt10_Select1stIS2_ESt4lessIiESaIS2_EE4sizeEv:
.LFB828:
	.cfi_startproc
	push	rbp
	.cfi_def_cfa_offset 16
	.cfi_offset 6, -16
	mov	rbp, rsp
	.cfi_def_cfa_register 6
	mov	QWORD PTR [rbp-8], rdi
	mov	rax, QWORD PTR [rbp-8]
	mov	rax, QWORD PTR [rax+40]
	pop	rbp
	.cfi_def_cfa 7, 8
	ret
	.cfi_endproc
.LFE828:
	.size	_ZNKSt8_Rb_treeIiSt4pairIKilESt10_Select1stIS2_ESt4lessIiESaIS2_EE4sizeEv, .-_ZNKSt8_Rb_treeIiSt4pairIKilESt10_Select1stIS2_ESt4lessIiESaIS2_EE4sizeEv
	.section	.text._ZNSt8_Rb_treeIiSt4pairIKilESt10_Select1stIS2_ESt4lessIiESaIS2_EE10_M_insert_EPKSt18_Rb_tree_node_baseSB_RKS2_,"axG",@progbits,_ZNSt8_Rb_treeIiSt4pairIKilESt10_Select1stIS2_ESt4lessIiESaIS2_EE10_M_insert_EPKSt18_Rb_tree_node_baseSB_RKS2_,comdat
	.align 2
	.weak	_ZNSt8_Rb_treeIiSt4pairIKilESt10_Select1stIS2_ESt4lessIiESaIS2_EE10_M_insert_EPKSt18_Rb_tree_node_baseSB_RKS2_
	.type	_ZNSt8_Rb_treeIiSt4pairIKilESt10_Select1stIS2_ESt4lessIiESaIS2_EE10_M_insert_EPKSt18_Rb_tree_node_baseSB_RKS2_, @function
_ZNSt8_Rb_treeIiSt4pairIKilESt10_Select1stIS2_ESt4lessIiESaIS2_EE10_M_insert_EPKSt18_Rb_tree_node_baseSB_RKS2_:
.LFB829:
	.cfi_startproc
	push	rbp
	.cfi_def_cfa_offset 16
	.cfi_offset 6, -16
	mov	rbp, rsp
	.cfi_def_cfa_register 6
	push	r12
	push	rbx
	sub	rsp, 64
	.cfi_offset 12, -24
	.cfi_offset 3, -32
	mov	QWORD PTR [rbp-56], rdi
	mov	QWORD PTR [rbp-64], rsi
	mov	QWORD PTR [rbp-72], rdx
	mov	QWORD PTR [rbp-80], rcx
	mov	ebx, 0
	cmp	QWORD PTR [rbp-64], 0
	jne	.L184
	mov	rax, QWORD PTR [rbp-56]
	mov	rdi, rax
	call	_ZNSt8_Rb_treeIiSt4pairIKilESt10_Select1stIS2_ESt4lessIiESaIS2_EE6_M_endEv
	cmp	rax, QWORD PTR [rbp-72]
	je	.L184
	mov	rax, QWORD PTR [rbp-72]
	mov	rdi, rax
	call	_ZNSt8_Rb_treeIiSt4pairIKilESt10_Select1stIS2_ESt4lessIiESaIS2_EE6_S_keyEPKSt18_Rb_tree_node_base
	mov	r12, rax
	mov	ebx, 1
	mov	rdx, QWORD PTR [rbp-80]
	lea	rax, [rbp-34]
	mov	rsi, rdx
	mov	rdi, rax
	call	_ZNKSt10_Select1stISt4pairIKilEEclERKS2_
	mov	rcx, rax
	mov	rax, QWORD PTR [rbp-56]
	mov	rdx, r12
	mov	rsi, rcx
	mov	rdi, rax
	call	_ZNKSt4lessIiEclERKiS2_
	test	al, al
	je	.L185
.L184:
	mov	eax, 1
	jmp	.L186
.L185:
	mov	eax, 0
.L186:
	mov	BYTE PTR [rbp-33], al
	test	bl, bl
	mov	rdx, QWORD PTR [rbp-80]
	mov	rax, QWORD PTR [rbp-56]
	mov	rsi, rdx
	mov	rdi, rax
	call	_ZNSt8_Rb_treeIiSt4pairIKilESt10_Select1stIS2_ESt4lessIiESaIS2_EE14_M_create_nodeERKS2_
	mov	QWORD PTR [rbp-24], rax
	mov	rax, QWORD PTR [rbp-56]
	lea	rcx, [rax+8]
	movzx	eax, BYTE PTR [rbp-33]
	mov	rdx, QWORD PTR [rbp-72]
	mov	rsi, QWORD PTR [rbp-24]
	mov	edi, eax
	call	_ZSt29_Rb_tree_insert_and_rebalancebPSt18_Rb_tree_node_baseS0_RS_
	mov	rax, QWORD PTR [rbp-56]
	mov	rax, QWORD PTR [rax+40]
	lea	rdx, [rax+1]
	mov	rax, QWORD PTR [rbp-56]
	mov	QWORD PTR [rax+40], rdx
	mov	rdx, QWORD PTR [rbp-24]
	lea	rax, [rbp-32]
	mov	rsi, rdx
	mov	rdi, rax
	call	_ZNSt17_Rb_tree_iteratorISt4pairIKilEEC1EPSt13_Rb_tree_nodeIS2_E
	mov	rax, QWORD PTR [rbp-32]
	add	rsp, 64
	pop	rbx
	pop	r12
	pop	rbp
	.cfi_def_cfa 7, 8
	ret
	.cfi_endproc
.LFE829:
	.size	_ZNSt8_Rb_treeIiSt4pairIKilESt10_Select1stIS2_ESt4lessIiESaIS2_EE10_M_insert_EPKSt18_Rb_tree_node_baseSB_RKS2_, .-_ZNSt8_Rb_treeIiSt4pairIKilESt10_Select1stIS2_ESt4lessIiESaIS2_EE10_M_insert_EPKSt18_Rb_tree_node_baseSB_RKS2_
	.section	.text._ZNSt8_Rb_treeIiSt4pairIKilESt10_Select1stIS2_ESt4lessIiESaIS2_EE16_M_insert_uniqueERKS2_,"axG",@progbits,_ZNSt8_Rb_treeIiSt4pairIKilESt10_Select1stIS2_ESt4lessIiESaIS2_EE16_M_insert_uniqueERKS2_,comdat
	.align 2
	.weak	_ZNSt8_Rb_treeIiSt4pairIKilESt10_Select1stIS2_ESt4lessIiESaIS2_EE16_M_insert_uniqueERKS2_
	.type	_ZNSt8_Rb_treeIiSt4pairIKilESt10_Select1stIS2_ESt4lessIiESaIS2_EE16_M_insert_uniqueERKS2_, @function
_ZNSt8_Rb_treeIiSt4pairIKilESt10_Select1stIS2_ESt4lessIiESaIS2_EE16_M_insert_uniqueERKS2_:
.LFB830:
	.cfi_startproc
	.cfi_personality 0x3,__gxx_personality_v0
	.cfi_lsda 0x3,.LLSDA830
	push	rbp
	.cfi_def_cfa_offset 16
	.cfi_offset 6, -16
	mov	rbp, rsp
	.cfi_def_cfa_register 6
	push	rbx
	sub	rsp, 152
	.cfi_offset 3, -24
	mov	QWORD PTR [rbp-136], rdi
	mov	QWORD PTR [rbp-144], rsi
	mov	rax, QWORD PTR [rbp-136]
	mov	rdi, rax
	call	_ZNSt8_Rb_treeIiSt4pairIKilESt10_Select1stIS2_ESt4lessIiESaIS2_EE8_M_beginEv
	mov	QWORD PTR [rbp-64], rax
	mov	rax, QWORD PTR [rbp-136]
	mov	rdi, rax
	call	_ZNSt8_Rb_treeIiSt4pairIKilESt10_Select1stIS2_ESt4lessIiESaIS2_EE6_M_endEv
	mov	QWORD PTR [rbp-56], rax
	mov	BYTE PTR [rbp-113], 1
	jmp	.L190
.L193:
	mov	rax, QWORD PTR [rbp-64]
	mov	QWORD PTR [rbp-56], rax
	mov	rax, QWORD PTR [rbp-64]
	mov	rdi, rax
	call	_ZNSt8_Rb_treeIiSt4pairIKilESt10_Select1stIS2_ESt4lessIiESaIS2_EE6_S_keyEPKSt13_Rb_tree_nodeIS2_E
	mov	rbx, rax
	mov	rdx, QWORD PTR [rbp-144]
	lea	rax, [rbp-32]
	mov	rsi, rdx
	mov	rdi, rax
	call	_ZNKSt10_Select1stISt4pairIKilEEclERKS2_
	mov	rcx, rax
	mov	rax, QWORD PTR [rbp-136]
	mov	rdx, rbx
	mov	rsi, rcx
	mov	rdi, rax
	call	_ZNKSt4lessIiEclERKiS2_
	mov	BYTE PTR [rbp-113], al
	cmp	BYTE PTR [rbp-113], 0
	je	.L191
	mov	rax, QWORD PTR [rbp-64]
	mov	rdi, rax
	call	_ZNSt8_Rb_treeIiSt4pairIKilESt10_Select1stIS2_ESt4lessIiESaIS2_EE7_S_leftEPSt18_Rb_tree_node_base
	jmp	.L192
.L191:
	mov	rax, QWORD PTR [rbp-64]
	mov	rdi, rax
	call	_ZNSt8_Rb_treeIiSt4pairIKilESt10_Select1stIS2_ESt4lessIiESaIS2_EE8_S_rightEPSt18_Rb_tree_node_base
.L192:
	mov	QWORD PTR [rbp-64], rax
.L190:
	cmp	QWORD PTR [rbp-64], 0
	setne	al
	test	al, al
	jne	.L193
	mov	rdx, QWORD PTR [rbp-56]
	lea	rax, [rbp-112]
	mov	rsi, rdx
	mov	rdi, rax
	call	_ZNSt17_Rb_tree_iteratorISt4pairIKilEEC1EPSt13_Rb_tree_nodeIS2_E
	cmp	BYTE PTR [rbp-113], 0
	je	.L194
	mov	rax, QWORD PTR [rbp-136]
	mov	rdi, rax
	call	_ZNSt8_Rb_treeIiSt4pairIKilESt10_Select1stIS2_ESt4lessIiESaIS2_EE5beginEv
	mov	QWORD PTR [rbp-32], rax
	lea	rdx, [rbp-32]
	lea	rax, [rbp-112]
	mov	rsi, rdx
	mov	rdi, rax
	call	_ZNKSt17_Rb_tree_iteratorISt4pairIKilEEeqERKS3_
	test	al, al
	je	.L195
	mov	BYTE PTR [rbp-115], 1
	mov	rcx, QWORD PTR [rbp-144]
	mov	rdx, QWORD PTR [rbp-56]
	mov	rsi, QWORD PTR [rbp-64]
	mov	rax, QWORD PTR [rbp-136]
	mov	rdi, rax
.LEHB20:
	call	_ZNSt8_Rb_treeIiSt4pairIKilESt10_Select1stIS2_ESt4lessIiESaIS2_EE10_M_insert_EPKSt18_Rb_tree_node_baseSB_RKS2_
.LEHE20:
	mov	QWORD PTR [rbp-96], rax
	lea	rdx, [rbp-115]
	lea	rcx, [rbp-96]
	lea	rax, [rbp-48]
	mov	rsi, rcx
	mov	rdi, rax
	call	_ZNSt4pairISt17_Rb_tree_iteratorIS_IKilEEbEC1ERKS3_RKb
	mov	rax, QWORD PTR [rbp-48]
	mov	QWORD PTR [rbp-32], rax
	mov	rax, QWORD PTR [rbp-40]
	mov	QWORD PTR [rbp-24], rax
	jmp	.L198
.L195:
	lea	rax, [rbp-112]
	mov	rdi, rax
	call	_ZNSt17_Rb_tree_iteratorISt4pairIKilEEmmEv
.L194:
	mov	rdx, QWORD PTR [rbp-144]
	lea	rax, [rbp-32]
	mov	rsi, rdx
	mov	rdi, rax
	call	_ZNKSt10_Select1stISt4pairIKilEEclERKS2_
	mov	rbx, rax
	mov	rax, QWORD PTR [rbp-112]
	mov	rdi, rax
	call	_ZNSt8_Rb_treeIiSt4pairIKilESt10_Select1stIS2_ESt4lessIiESaIS2_EE6_S_keyEPKSt18_Rb_tree_node_base
	mov	rcx, rax
	mov	rax, QWORD PTR [rbp-136]
	mov	rdx, rbx
	mov	rsi, rcx
	mov	rdi, rax
	call	_ZNKSt4lessIiEclERKiS2_
	test	al, al
	je	.L197
	mov	BYTE PTR [rbp-114], 1
	mov	rcx, QWORD PTR [rbp-144]
	mov	rdx, QWORD PTR [rbp-56]
	mov	rsi, QWORD PTR [rbp-64]
	mov	rax, QWORD PTR [rbp-136]
	mov	rdi, rax
.LEHB21:
	call	_ZNSt8_Rb_treeIiSt4pairIKilESt10_Select1stIS2_ESt4lessIiESaIS2_EE10_M_insert_EPKSt18_Rb_tree_node_baseSB_RKS2_
.LEHE21:
	mov	QWORD PTR [rbp-80], rax
	lea	rdx, [rbp-114]
	lea	rcx, [rbp-80]
	lea	rax, [rbp-48]
	mov	rsi, rcx
	mov	rdi, rax
	call	_ZNSt4pairISt17_Rb_tree_iteratorIS_IKilEEbEC1ERKS3_RKb
	mov	rax, QWORD PTR [rbp-48]
	mov	QWORD PTR [rbp-32], rax
	mov	rax, QWORD PTR [rbp-40]
	mov	QWORD PTR [rbp-24], rax
	jmp	.L198
.L197:
	mov	BYTE PTR [rbp-114], 0
	lea	rdx, [rbp-114]
	lea	rcx, [rbp-112]
	lea	rax, [rbp-48]
	mov	rsi, rcx
	mov	rdi, rax
	call	_ZNSt4pairISt17_Rb_tree_iteratorIS_IKilEEbEC1ERKS3_RKb
	mov	rax, QWORD PTR [rbp-48]
	mov	QWORD PTR [rbp-32], rax
	mov	rax, QWORD PTR [rbp-40]
	mov	QWORD PTR [rbp-24], rax
.L198:
	mov	rax, QWORD PTR [rbp-32]
	mov	edx, DWORD PTR [rbp-24]
	jmp	.L204
.L202:
	jmp	.L200
.L203:
.L200:
	mov	rdi, rax
.LEHB22:
	call	_Unwind_Resume
.LEHE22:
.L204:
	add	rsp, 152
	pop	rbx
	pop	rbp
	.cfi_def_cfa 7, 8
	ret
	.cfi_endproc
.LFE830:
	.section	.gcc_except_table
.LLSDA830:
	.byte	0xff
	.byte	0xff
	.byte	0x1
	.uleb128 .LLSDACSE830-.LLSDACSB830
.LLSDACSB830:
	.uleb128 .LEHB20-.LFB830
	.uleb128 .LEHE20-.LEHB20
	.uleb128 .L202-.LFB830
	.uleb128 0
	.uleb128 .LEHB21-.LFB830
	.uleb128 .LEHE21-.LEHB21
	.uleb128 .L203-.LFB830
	.uleb128 0
	.uleb128 .LEHB22-.LFB830
	.uleb128 .LEHE22-.LEHB22
	.uleb128 0
	.uleb128 0
.LLSDACSE830:
	.section	.text._ZNSt8_Rb_treeIiSt4pairIKilESt10_Select1stIS2_ESt4lessIiESaIS2_EE16_M_insert_uniqueERKS2_,"axG",@progbits,_ZNSt8_Rb_treeIiSt4pairIKilESt10_Select1stIS2_ESt4lessIiESaIS2_EE16_M_insert_uniqueERKS2_,comdat
	.size	_ZNSt8_Rb_treeIiSt4pairIKilESt10_Select1stIS2_ESt4lessIiESaIS2_EE16_M_insert_uniqueERKS2_, .-_ZNSt8_Rb_treeIiSt4pairIKilESt10_Select1stIS2_ESt4lessIiESaIS2_EE16_M_insert_uniqueERKS2_
	.section	.text._ZNSt8_Rb_treeIiSt4pairIKilESt10_Select1stIS2_ESt4lessIiESaIS2_EE11_M_leftmostEv,"axG",@progbits,_ZNSt8_Rb_treeIiSt4pairIKilESt10_Select1stIS2_ESt4lessIiESaIS2_EE11_M_leftmostEv,comdat
	.align 2
	.weak	_ZNSt8_Rb_treeIiSt4pairIKilESt10_Select1stIS2_ESt4lessIiESaIS2_EE11_M_leftmostEv
	.type	_ZNSt8_Rb_treeIiSt4pairIKilESt10_Select1stIS2_ESt4lessIiESaIS2_EE11_M_leftmostEv, @function
_ZNSt8_Rb_treeIiSt4pairIKilESt10_Select1stIS2_ESt4lessIiESaIS2_EE11_M_leftmostEv:
.LFB831:
	.cfi_startproc
	push	rbp
	.cfi_def_cfa_offset 16
	.cfi_offset 6, -16
	mov	rbp, rsp
	.cfi_def_cfa_register 6
	mov	QWORD PTR [rbp-8], rdi
	mov	rax, QWORD PTR [rbp-8]
	add	rax, 24
	pop	rbp
	.cfi_def_cfa 7, 8
	ret
	.cfi_endproc
.LFE831:
	.size	_ZNSt8_Rb_treeIiSt4pairIKilESt10_Select1stIS2_ESt4lessIiESaIS2_EE11_M_leftmostEv, .-_ZNSt8_Rb_treeIiSt4pairIKilESt10_Select1stIS2_ESt4lessIiESaIS2_EE11_M_leftmostEv
	.section	.text._ZNSt23_Rb_tree_const_iteratorISt4pairIKilEEmmEv,"axG",@progbits,_ZNSt23_Rb_tree_const_iteratorISt4pairIKilEEmmEv,comdat
	.align 2
	.weak	_ZNSt23_Rb_tree_const_iteratorISt4pairIKilEEmmEv
	.type	_ZNSt23_Rb_tree_const_iteratorISt4pairIKilEEmmEv, @function
_ZNSt23_Rb_tree_const_iteratorISt4pairIKilEEmmEv:
.LFB832:
	.cfi_startproc
	push	rbp
	.cfi_def_cfa_offset 16
	.cfi_offset 6, -16
	mov	rbp, rsp
	.cfi_def_cfa_register 6
	sub	rsp, 16
	mov	QWORD PTR [rbp-8], rdi
	mov	rax, QWORD PTR [rbp-8]
	mov	rax, QWORD PTR [rax]
	mov	rdi, rax
	call	_ZSt18_Rb_tree_decrementPKSt18_Rb_tree_node_base
	mov	rdx, QWORD PTR [rbp-8]
	mov	QWORD PTR [rdx], rax
	mov	rax, QWORD PTR [rbp-8]
	leave
	.cfi_def_cfa 7, 8
	ret
	.cfi_endproc
.LFE832:
	.size	_ZNSt23_Rb_tree_const_iteratorISt4pairIKilEEmmEv, .-_ZNSt23_Rb_tree_const_iteratorISt4pairIKilEEmmEv
	.section	.text._ZNSt8_Rb_treeIiSt4pairIKilESt10_Select1stIS2_ESt4lessIiESaIS2_EE8_S_rightEPKSt18_Rb_tree_node_base,"axG",@progbits,_ZNSt8_Rb_treeIiSt4pairIKilESt10_Select1stIS2_ESt4lessIiESaIS2_EE8_S_rightEPKSt18_Rb_tree_node_base,comdat
	.weak	_ZNSt8_Rb_treeIiSt4pairIKilESt10_Select1stIS2_ESt4lessIiESaIS2_EE8_S_rightEPKSt18_Rb_tree_node_base
	.type	_ZNSt8_Rb_treeIiSt4pairIKilESt10_Select1stIS2_ESt4lessIiESaIS2_EE8_S_rightEPKSt18_Rb_tree_node_base, @function
_ZNSt8_Rb_treeIiSt4pairIKilESt10_Select1stIS2_ESt4lessIiESaIS2_EE8_S_rightEPKSt18_Rb_tree_node_base:
.LFB833:
	.cfi_startproc
	push	rbp
	.cfi_def_cfa_offset 16
	.cfi_offset 6, -16
	mov	rbp, rsp
	.cfi_def_cfa_register 6
	mov	QWORD PTR [rbp-8], rdi
	mov	rax, QWORD PTR [rbp-8]
	mov	rax, QWORD PTR [rax+24]
	pop	rbp
	.cfi_def_cfa 7, 8
	ret
	.cfi_endproc
.LFE833:
	.size	_ZNSt8_Rb_treeIiSt4pairIKilESt10_Select1stIS2_ESt4lessIiESaIS2_EE8_S_rightEPKSt18_Rb_tree_node_base, .-_ZNSt8_Rb_treeIiSt4pairIKilESt10_Select1stIS2_ESt4lessIiESaIS2_EE8_S_rightEPKSt18_Rb_tree_node_base
	.section	.text._ZNSt23_Rb_tree_const_iteratorISt4pairIKilEEppEv,"axG",@progbits,_ZNSt23_Rb_tree_const_iteratorISt4pairIKilEEppEv,comdat
	.align 2
	.weak	_ZNSt23_Rb_tree_const_iteratorISt4pairIKilEEppEv
	.type	_ZNSt23_Rb_tree_const_iteratorISt4pairIKilEEppEv, @function
_ZNSt23_Rb_tree_const_iteratorISt4pairIKilEEppEv:
.LFB834:
	.cfi_startproc
	push	rbp
	.cfi_def_cfa_offset 16
	.cfi_offset 6, -16
	mov	rbp, rsp
	.cfi_def_cfa_register 6
	sub	rsp, 16
	mov	QWORD PTR [rbp-8], rdi
	mov	rax, QWORD PTR [rbp-8]
	mov	rax, QWORD PTR [rax]
	mov	rdi, rax
	call	_ZSt18_Rb_tree_incrementPKSt18_Rb_tree_node_base
	mov	rdx, QWORD PTR [rbp-8]
	mov	QWORD PTR [rdx], rax
	mov	rax, QWORD PTR [rbp-8]
	leave
	.cfi_def_cfa 7, 8
	ret
	.cfi_endproc
.LFE834:
	.size	_ZNSt23_Rb_tree_const_iteratorISt4pairIKilEEppEv, .-_ZNSt23_Rb_tree_const_iteratorISt4pairIKilEEppEv
	.section	.text._ZNKSt23_Rb_tree_const_iteratorISt4pairIKilEE13_M_const_castEv,"axG",@progbits,_ZNKSt23_Rb_tree_const_iteratorISt4pairIKilEE13_M_const_castEv,comdat
	.align 2
	.weak	_ZNKSt23_Rb_tree_const_iteratorISt4pairIKilEE13_M_const_castEv
	.type	_ZNKSt23_Rb_tree_const_iteratorISt4pairIKilEE13_M_const_castEv, @function
_ZNKSt23_Rb_tree_const_iteratorISt4pairIKilEE13_M_const_castEv:
.LFB835:
	.cfi_startproc
	push	rbp
	.cfi_def_cfa_offset 16
	.cfi_offset 6, -16
	mov	rbp, rsp
	.cfi_def_cfa_register 6
	sub	rsp, 32
	mov	QWORD PTR [rbp-24], rdi
	mov	rax, QWORD PTR [rbp-24]
	mov	rdx, QWORD PTR [rax]
	lea	rax, [rbp-16]
	mov	rsi, rdx
	mov	rdi, rax
	call	_ZNSt17_Rb_tree_iteratorISt4pairIKilEEC1EPSt13_Rb_tree_nodeIS2_E
	mov	rax, QWORD PTR [rbp-16]
	leave
	.cfi_def_cfa 7, 8
	ret
	.cfi_endproc
.LFE835:
	.size	_ZNKSt23_Rb_tree_const_iteratorISt4pairIKilEE13_M_const_castEv, .-_ZNKSt23_Rb_tree_const_iteratorISt4pairIKilEE13_M_const_castEv
	.section	.text._ZN9__gnu_cxx13new_allocatorISt13_Rb_tree_nodeISt4pairIKilEEEC2Ev,"axG",@progbits,_ZN9__gnu_cxx13new_allocatorISt13_Rb_tree_nodeISt4pairIKilEEEC5Ev,comdat
	.align 2
	.weak	_ZN9__gnu_cxx13new_allocatorISt13_Rb_tree_nodeISt4pairIKilEEEC2Ev
	.type	_ZN9__gnu_cxx13new_allocatorISt13_Rb_tree_nodeISt4pairIKilEEEC2Ev, @function
_ZN9__gnu_cxx13new_allocatorISt13_Rb_tree_nodeISt4pairIKilEEEC2Ev:
.LFB837:
	.cfi_startproc
	push	rbp
	.cfi_def_cfa_offset 16
	.cfi_offset 6, -16
	mov	rbp, rsp
	.cfi_def_cfa_register 6
	mov	QWORD PTR [rbp-8], rdi
	pop	rbp
	.cfi_def_cfa 7, 8
	ret
	.cfi_endproc
.LFE837:
	.size	_ZN9__gnu_cxx13new_allocatorISt13_Rb_tree_nodeISt4pairIKilEEEC2Ev, .-_ZN9__gnu_cxx13new_allocatorISt13_Rb_tree_nodeISt4pairIKilEEEC2Ev
	.weak	_ZN9__gnu_cxx13new_allocatorISt13_Rb_tree_nodeISt4pairIKilEEEC1Ev
	.set	_ZN9__gnu_cxx13new_allocatorISt13_Rb_tree_nodeISt4pairIKilEEEC1Ev,_ZN9__gnu_cxx13new_allocatorISt13_Rb_tree_nodeISt4pairIKilEEEC2Ev
	.section	.text._ZNKSt8_Rb_treeIiSt4pairIKilESt10_Select1stIS2_ESt4lessIiESaIS2_EE21_M_get_Node_allocatorEv,"axG",@progbits,_ZNKSt8_Rb_treeIiSt4pairIKilESt10_Select1stIS2_ESt4lessIiESaIS2_EE21_M_get_Node_allocatorEv,comdat
	.align 2
	.weak	_ZNKSt8_Rb_treeIiSt4pairIKilESt10_Select1stIS2_ESt4lessIiESaIS2_EE21_M_get_Node_allocatorEv
	.type	_ZNKSt8_Rb_treeIiSt4pairIKilESt10_Select1stIS2_ESt4lessIiESaIS2_EE21_M_get_Node_allocatorEv, @function
_ZNKSt8_Rb_treeIiSt4pairIKilESt10_Select1stIS2_ESt4lessIiESaIS2_EE21_M_get_Node_allocatorEv:
.LFB839:
	.cfi_startproc
	push	rbp
	.cfi_def_cfa_offset 16
	.cfi_offset 6, -16
	mov	rbp, rsp
	.cfi_def_cfa_register 6
	mov	QWORD PTR [rbp-8], rdi
	mov	rax, QWORD PTR [rbp-8]
	pop	rbp
	.cfi_def_cfa 7, 8
	ret
	.cfi_endproc
.LFE839:
	.size	_ZNKSt8_Rb_treeIiSt4pairIKilESt10_Select1stIS2_ESt4lessIiESaIS2_EE21_M_get_Node_allocatorEv, .-_ZNKSt8_Rb_treeIiSt4pairIKilESt10_Select1stIS2_ESt4lessIiESaIS2_EE21_M_get_Node_allocatorEv
	.section	.text._ZNSaISt4pairIKilEEC2ISt13_Rb_tree_nodeIS1_EEERKSaIT_E,"axG",@progbits,_ZNSaISt4pairIKilEEC5ISt13_Rb_tree_nodeIS1_EEERKSaIT_E,comdat
	.align 2
	.weak	_ZNSaISt4pairIKilEEC2ISt13_Rb_tree_nodeIS1_EEERKSaIT_E
	.type	_ZNSaISt4pairIKilEEC2ISt13_Rb_tree_nodeIS1_EEERKSaIT_E, @function
_ZNSaISt4pairIKilEEC2ISt13_Rb_tree_nodeIS1_EEERKSaIT_E:
.LFB841:
	.cfi_startproc
	push	rbp
	.cfi_def_cfa_offset 16
	.cfi_offset 6, -16
	mov	rbp, rsp
	.cfi_def_cfa_register 6
	sub	rsp, 16
	mov	QWORD PTR [rbp-8], rdi
	mov	QWORD PTR [rbp-16], rsi
	mov	rax, QWORD PTR [rbp-8]
	mov	rdi, rax
	call	_ZN9__gnu_cxx13new_allocatorISt4pairIKilEEC2Ev
	leave
	.cfi_def_cfa 7, 8
	ret
	.cfi_endproc
.LFE841:
	.size	_ZNSaISt4pairIKilEEC2ISt13_Rb_tree_nodeIS1_EEERKSaIT_E, .-_ZNSaISt4pairIKilEEC2ISt13_Rb_tree_nodeIS1_EEERKSaIT_E
	.weak	_ZNSaISt4pairIKilEEC1ISt13_Rb_tree_nodeIS1_EEERKSaIT_E
	.set	_ZNSaISt4pairIKilEEC1ISt13_Rb_tree_nodeIS1_EEERKSaIT_E,_ZNSaISt4pairIKilEEC2ISt13_Rb_tree_nodeIS1_EEERKSaIT_E
	.section	.text._ZN9__gnu_cxx13new_allocatorISt4pairIKilEED2Ev,"axG",@progbits,_ZN9__gnu_cxx13new_allocatorISt4pairIKilEED5Ev,comdat
	.align 2
	.weak	_ZN9__gnu_cxx13new_allocatorISt4pairIKilEED2Ev
	.type	_ZN9__gnu_cxx13new_allocatorISt4pairIKilEED2Ev, @function
_ZN9__gnu_cxx13new_allocatorISt4pairIKilEED2Ev:
.LFB847:
	.cfi_startproc
	push	rbp
	.cfi_def_cfa_offset 16
	.cfi_offset 6, -16
	mov	rbp, rsp
	.cfi_def_cfa_register 6
	mov	QWORD PTR [rbp-8], rdi
	pop	rbp
	.cfi_def_cfa 7, 8
	ret
	.cfi_endproc
.LFE847:
	.size	_ZN9__gnu_cxx13new_allocatorISt4pairIKilEED2Ev, .-_ZN9__gnu_cxx13new_allocatorISt4pairIKilEED2Ev
	.weak	_ZN9__gnu_cxx13new_allocatorISt4pairIKilEED1Ev
	.set	_ZN9__gnu_cxx13new_allocatorISt4pairIKilEED1Ev,_ZN9__gnu_cxx13new_allocatorISt4pairIKilEED2Ev
	.section	.text._ZN9__gnu_cxx13new_allocatorISt13_Rb_tree_nodeISt4pairIKilEEE10deallocateEPS5_m,"axG",@progbits,_ZN9__gnu_cxx13new_allocatorISt13_Rb_tree_nodeISt4pairIKilEEE10deallocateEPS5_m,comdat
	.align 2
	.weak	_ZN9__gnu_cxx13new_allocatorISt13_Rb_tree_nodeISt4pairIKilEEE10deallocateEPS5_m
	.type	_ZN9__gnu_cxx13new_allocatorISt13_Rb_tree_nodeISt4pairIKilEEE10deallocateEPS5_m, @function
_ZN9__gnu_cxx13new_allocatorISt13_Rb_tree_nodeISt4pairIKilEEE10deallocateEPS5_m:
.LFB849:
	.cfi_startproc
	push	rbp
	.cfi_def_cfa_offset 16
	.cfi_offset 6, -16
	mov	rbp, rsp
	.cfi_def_cfa_register 6
	sub	rsp, 32
	mov	QWORD PTR [rbp-8], rdi
	mov	QWORD PTR [rbp-16], rsi
	mov	QWORD PTR [rbp-24], rdx
	mov	rax, QWORD PTR [rbp-16]
	mov	rdi, rax
	call	_ZdlPv
	leave
	.cfi_def_cfa 7, 8
	ret
	.cfi_endproc
.LFE849:
	.size	_ZN9__gnu_cxx13new_allocatorISt13_Rb_tree_nodeISt4pairIKilEEE10deallocateEPS5_m, .-_ZN9__gnu_cxx13new_allocatorISt13_Rb_tree_nodeISt4pairIKilEEE10deallocateEPS5_m
	.section	.text._ZNSt8_Rb_treeIiSt4pairIKilESt10_Select1stIS2_ESt4lessIiESaIS2_EE8_S_valueEPKSt13_Rb_tree_nodeIS2_E,"axG",@progbits,_ZNSt8_Rb_treeIiSt4pairIKilESt10_Select1stIS2_ESt4lessIiESaIS2_EE8_S_valueEPKSt13_Rb_tree_nodeIS2_E,comdat
	.weak	_ZNSt8_Rb_treeIiSt4pairIKilESt10_Select1stIS2_ESt4lessIiESaIS2_EE8_S_valueEPKSt13_Rb_tree_nodeIS2_E
	.type	_ZNSt8_Rb_treeIiSt4pairIKilESt10_Select1stIS2_ESt4lessIiESaIS2_EE8_S_valueEPKSt13_Rb_tree_nodeIS2_E, @function
_ZNSt8_Rb_treeIiSt4pairIKilESt10_Select1stIS2_ESt4lessIiESaIS2_EE8_S_valueEPKSt13_Rb_tree_nodeIS2_E:
.LFB850:
	.cfi_startproc
	push	rbp
	.cfi_def_cfa_offset 16
	.cfi_offset 6, -16
	mov	rbp, rsp
	.cfi_def_cfa_register 6
	mov	QWORD PTR [rbp-8], rdi
	mov	rax, QWORD PTR [rbp-8]
	add	rax, 32
	pop	rbp
	.cfi_def_cfa 7, 8
	ret
	.cfi_endproc
.LFE850:
	.size	_ZNSt8_Rb_treeIiSt4pairIKilESt10_Select1stIS2_ESt4lessIiESaIS2_EE8_S_valueEPKSt13_Rb_tree_nodeIS2_E, .-_ZNSt8_Rb_treeIiSt4pairIKilESt10_Select1stIS2_ESt4lessIiESaIS2_EE8_S_valueEPKSt13_Rb_tree_nodeIS2_E
	.section	.text._ZNSt8_Rb_treeIiSt4pairIKilESt10_Select1stIS2_ESt4lessIiESaIS2_EE14_M_create_nodeERKS2_,"axG",@progbits,_ZNSt8_Rb_treeIiSt4pairIKilESt10_Select1stIS2_ESt4lessIiESaIS2_EE14_M_create_nodeERKS2_,comdat
	.align 2
	.weak	_ZNSt8_Rb_treeIiSt4pairIKilESt10_Select1stIS2_ESt4lessIiESaIS2_EE14_M_create_nodeERKS2_
	.type	_ZNSt8_Rb_treeIiSt4pairIKilESt10_Select1stIS2_ESt4lessIiESaIS2_EE14_M_create_nodeERKS2_, @function
_ZNSt8_Rb_treeIiSt4pairIKilESt10_Select1stIS2_ESt4lessIiESaIS2_EE14_M_create_nodeERKS2_:
.LFB851:
	.cfi_startproc
	push	rbp
	.cfi_def_cfa_offset 16
	.cfi_offset 6, -16
	mov	rbp, rsp
	.cfi_def_cfa_register 6
	push	rbx
	sub	rsp, 40
	.cfi_offset 3, -24
	mov	QWORD PTR [rbp-40], rdi
	mov	QWORD PTR [rbp-48], rsi
	mov	rax, QWORD PTR [rbp-40]
	mov	rdi, rax
	call	_ZNSt8_Rb_treeIiSt4pairIKilESt10_Select1stIS2_ESt4lessIiESaIS2_EE11_M_get_nodeEv
	mov	QWORD PTR [rbp-24], rax
	mov	rax, QWORD PTR [rbp-24]
	add	rax, 32
	mov	rdi, rax
	call	_ZSt11__addressofISt4pairIKilEEPT_RS3_
	mov	rbx, rax
	lea	rax, [rbp-25]
	mov	rdx, QWORD PTR [rbp-40]
	mov	rsi, rdx
	mov	rdi, rax
	call	_ZNKSt8_Rb_treeIiSt4pairIKilESt10_Select1stIS2_ESt4lessIiESaIS2_EE13get_allocatorEv
	mov	rdx, QWORD PTR [rbp-48]
	lea	rax, [rbp-25]
	mov	rsi, rbx
	mov	rdi, rax
	call	_ZN9__gnu_cxx13new_allocatorISt4pairIKilEE9constructEPS3_RKS3_
	lea	rax, [rbp-25]
	mov	rdi, rax
	call	_ZNSaISt4pairIKilEED1Ev
	mov	rax, QWORD PTR [rbp-24]
	add	rsp, 40
	pop	rbx
	pop	rbp
	.cfi_def_cfa 7, 8
	ret
	.cfi_endproc
.LFE851:
	.size	_ZNSt8_Rb_treeIiSt4pairIKilESt10_Select1stIS2_ESt4lessIiESaIS2_EE14_M_create_nodeERKS2_, .-_ZNSt8_Rb_treeIiSt4pairIKilESt10_Select1stIS2_ESt4lessIiESaIS2_EE14_M_create_nodeERKS2_
	.section	.text._ZNSt4pairISt17_Rb_tree_iteratorIS_IKilEEbEC2ERKS3_RKb,"axG",@progbits,_ZNSt4pairISt17_Rb_tree_iteratorIS_IKilEEbEC5ERKS3_RKb,comdat
	.align 2
	.weak	_ZNSt4pairISt17_Rb_tree_iteratorIS_IKilEEbEC2ERKS3_RKb
	.type	_ZNSt4pairISt17_Rb_tree_iteratorIS_IKilEEbEC2ERKS3_RKb, @function
_ZNSt4pairISt17_Rb_tree_iteratorIS_IKilEEbEC2ERKS3_RKb:
.LFB853:
	.cfi_startproc
	push	rbp
	.cfi_def_cfa_offset 16
	.cfi_offset 6, -16
	mov	rbp, rsp
	.cfi_def_cfa_register 6
	mov	QWORD PTR [rbp-8], rdi
	mov	QWORD PTR [rbp-16], rsi
	mov	QWORD PTR [rbp-24], rdx
	mov	rax, QWORD PTR [rbp-8]
	mov	rdx, QWORD PTR [rbp-16]
	mov	rdx, QWORD PTR [rdx]
	mov	QWORD PTR [rax], rdx
	mov	rax, QWORD PTR [rbp-24]
	movzx	edx, BYTE PTR [rax]
	mov	rax, QWORD PTR [rbp-8]
	mov	BYTE PTR [rax+8], dl
	pop	rbp
	.cfi_def_cfa 7, 8
	ret
	.cfi_endproc
.LFE853:
	.size	_ZNSt4pairISt17_Rb_tree_iteratorIS_IKilEEbEC2ERKS3_RKb, .-_ZNSt4pairISt17_Rb_tree_iteratorIS_IKilEEbEC2ERKS3_RKb
	.weak	_ZNSt4pairISt17_Rb_tree_iteratorIS_IKilEEbEC1ERKS3_RKb
	.set	_ZNSt4pairISt17_Rb_tree_iteratorIS_IKilEEbEC1ERKS3_RKb,_ZNSt4pairISt17_Rb_tree_iteratorIS_IKilEEbEC2ERKS3_RKb
	.section	.text._ZNSt17_Rb_tree_iteratorISt4pairIKilEEmmEv,"axG",@progbits,_ZNSt17_Rb_tree_iteratorISt4pairIKilEEmmEv,comdat
	.align 2
	.weak	_ZNSt17_Rb_tree_iteratorISt4pairIKilEEmmEv
	.type	_ZNSt17_Rb_tree_iteratorISt4pairIKilEEmmEv, @function
_ZNSt17_Rb_tree_iteratorISt4pairIKilEEmmEv:
.LFB855:
	.cfi_startproc
	push	rbp
	.cfi_def_cfa_offset 16
	.cfi_offset 6, -16
	mov	rbp, rsp
	.cfi_def_cfa_register 6
	sub	rsp, 16
	mov	QWORD PTR [rbp-8], rdi
	mov	rax, QWORD PTR [rbp-8]
	mov	rax, QWORD PTR [rax]
	mov	rdi, rax
	call	_ZSt18_Rb_tree_decrementPSt18_Rb_tree_node_base
	mov	rdx, QWORD PTR [rbp-8]
	mov	QWORD PTR [rdx], rax
	mov	rax, QWORD PTR [rbp-8]
	leave
	.cfi_def_cfa 7, 8
	ret
	.cfi_endproc
.LFE855:
	.size	_ZNSt17_Rb_tree_iteratorISt4pairIKilEEmmEv, .-_ZNSt17_Rb_tree_iteratorISt4pairIKilEEmmEv
	.section	.text._ZN9__gnu_cxx13new_allocatorISt4pairIKilEEC2Ev,"axG",@progbits,_ZN9__gnu_cxx13new_allocatorISt4pairIKilEEC5Ev,comdat
	.align 2
	.weak	_ZN9__gnu_cxx13new_allocatorISt4pairIKilEEC2Ev
	.type	_ZN9__gnu_cxx13new_allocatorISt4pairIKilEEC2Ev, @function
_ZN9__gnu_cxx13new_allocatorISt4pairIKilEEC2Ev:
.LFB857:
	.cfi_startproc
	push	rbp
	.cfi_def_cfa_offset 16
	.cfi_offset 6, -16
	mov	rbp, rsp
	.cfi_def_cfa_register 6
	mov	QWORD PTR [rbp-8], rdi
	pop	rbp
	.cfi_def_cfa 7, 8
	ret
	.cfi_endproc
.LFE857:
	.size	_ZN9__gnu_cxx13new_allocatorISt4pairIKilEEC2Ev, .-_ZN9__gnu_cxx13new_allocatorISt4pairIKilEEC2Ev
	.weak	_ZN9__gnu_cxx13new_allocatorISt4pairIKilEEC1Ev
	.set	_ZN9__gnu_cxx13new_allocatorISt4pairIKilEEC1Ev,_ZN9__gnu_cxx13new_allocatorISt4pairIKilEEC2Ev
	.section	.text._ZNSt8_Rb_treeIiSt4pairIKilESt10_Select1stIS2_ESt4lessIiESaIS2_EE11_M_get_nodeEv,"axG",@progbits,_ZNSt8_Rb_treeIiSt4pairIKilESt10_Select1stIS2_ESt4lessIiESaIS2_EE11_M_get_nodeEv,comdat
	.align 2
	.weak	_ZNSt8_Rb_treeIiSt4pairIKilESt10_Select1stIS2_ESt4lessIiESaIS2_EE11_M_get_nodeEv
	.type	_ZNSt8_Rb_treeIiSt4pairIKilESt10_Select1stIS2_ESt4lessIiESaIS2_EE11_M_get_nodeEv, @function
_ZNSt8_Rb_treeIiSt4pairIKilESt10_Select1stIS2_ESt4lessIiESaIS2_EE11_M_get_nodeEv:
.LFB862:
	.cfi_startproc
	push	rbp
	.cfi_def_cfa_offset 16
	.cfi_offset 6, -16
	mov	rbp, rsp
	.cfi_def_cfa_register 6
	sub	rsp, 16
	mov	QWORD PTR [rbp-8], rdi
	mov	rax, QWORD PTR [rbp-8]
	mov	edx, 0
	mov	esi, 1
	mov	rdi, rax
	call	_ZN9__gnu_cxx13new_allocatorISt13_Rb_tree_nodeISt4pairIKilEEE8allocateEmPKv
	leave
	.cfi_def_cfa 7, 8
	ret
	.cfi_endproc
.LFE862:
	.size	_ZNSt8_Rb_treeIiSt4pairIKilESt10_Select1stIS2_ESt4lessIiESaIS2_EE11_M_get_nodeEv, .-_ZNSt8_Rb_treeIiSt4pairIKilESt10_Select1stIS2_ESt4lessIiESaIS2_EE11_M_get_nodeEv
	.section	.text._ZN9__gnu_cxx13new_allocatorISt4pairIKilEE9constructEPS3_RKS3_,"axG",@progbits,_ZN9__gnu_cxx13new_allocatorISt4pairIKilEE9constructEPS3_RKS3_,comdat
	.align 2
	.weak	_ZN9__gnu_cxx13new_allocatorISt4pairIKilEE9constructEPS3_RKS3_
	.type	_ZN9__gnu_cxx13new_allocatorISt4pairIKilEE9constructEPS3_RKS3_, @function
_ZN9__gnu_cxx13new_allocatorISt4pairIKilEE9constructEPS3_RKS3_:
.LFB863:
	.cfi_startproc
	push	rbp
	.cfi_def_cfa_offset 16
	.cfi_offset 6, -16
	mov	rbp, rsp
	.cfi_def_cfa_register 6
	sub	rsp, 32
	mov	QWORD PTR [rbp-8], rdi
	mov	QWORD PTR [rbp-16], rsi
	mov	QWORD PTR [rbp-24], rdx
	mov	rax, QWORD PTR [rbp-16]
	mov	rsi, rax
	mov	edi, 16
	call	_ZnwmPv
	test	rax, rax
	je	.L232
	mov	rdx, QWORD PTR [rbp-24]
	mov	rcx, QWORD PTR [rdx]
	mov	QWORD PTR [rax], rcx
	mov	rdx, QWORD PTR [rdx+8]
	mov	QWORD PTR [rax+8], rdx
.L232:
	leave
	.cfi_def_cfa 7, 8
	ret
	.cfi_endproc
.LFE863:
	.size	_ZN9__gnu_cxx13new_allocatorISt4pairIKilEE9constructEPS3_RKS3_, .-_ZN9__gnu_cxx13new_allocatorISt4pairIKilEE9constructEPS3_RKS3_
	.section	.text._ZN9__gnu_cxx13new_allocatorISt13_Rb_tree_nodeISt4pairIKilEEE8allocateEmPKv,"axG",@progbits,_ZN9__gnu_cxx13new_allocatorISt13_Rb_tree_nodeISt4pairIKilEEE8allocateEmPKv,comdat
	.align 2
	.weak	_ZN9__gnu_cxx13new_allocatorISt13_Rb_tree_nodeISt4pairIKilEEE8allocateEmPKv
	.type	_ZN9__gnu_cxx13new_allocatorISt13_Rb_tree_nodeISt4pairIKilEEE8allocateEmPKv, @function
_ZN9__gnu_cxx13new_allocatorISt13_Rb_tree_nodeISt4pairIKilEEE8allocateEmPKv:
.LFB864:
	.cfi_startproc
	push	rbp
	.cfi_def_cfa_offset 16
	.cfi_offset 6, -16
	mov	rbp, rsp
	.cfi_def_cfa_register 6
	sub	rsp, 32
	mov	QWORD PTR [rbp-8], rdi
	mov	QWORD PTR [rbp-16], rsi
	mov	QWORD PTR [rbp-24], rdx
	mov	rax, QWORD PTR [rbp-8]
	mov	rdi, rax
	call	_ZNK9__gnu_cxx13new_allocatorISt13_Rb_tree_nodeISt4pairIKilEEE8max_sizeEv
	cmp	rax, QWORD PTR [rbp-16]
	setb	al
	test	al, al
	je	.L236
	call	_ZSt17__throw_bad_allocv
.L236:
	mov	rdx, QWORD PTR [rbp-16]
	mov	rax, rdx
	add	rax, rax
	add	rax, rdx
	sal	rax, 4
	mov	rdi, rax
	call	_Znwm
	leave
	.cfi_def_cfa 7, 8
	ret
	.cfi_endproc
.LFE864:
	.size	_ZN9__gnu_cxx13new_allocatorISt13_Rb_tree_nodeISt4pairIKilEEE8allocateEmPKv, .-_ZN9__gnu_cxx13new_allocatorISt13_Rb_tree_nodeISt4pairIKilEEE8allocateEmPKv
	.section	.text._ZNK9__gnu_cxx13new_allocatorISt13_Rb_tree_nodeISt4pairIKilEEE8max_sizeEv,"axG",@progbits,_ZNK9__gnu_cxx13new_allocatorISt13_Rb_tree_nodeISt4pairIKilEEE8max_sizeEv,comdat
	.align 2
	.weak	_ZNK9__gnu_cxx13new_allocatorISt13_Rb_tree_nodeISt4pairIKilEEE8max_sizeEv
	.type	_ZNK9__gnu_cxx13new_allocatorISt13_Rb_tree_nodeISt4pairIKilEEE8max_sizeEv, @function
_ZNK9__gnu_cxx13new_allocatorISt13_Rb_tree_nodeISt4pairIKilEEE8max_sizeEv:
.LFB865:
	.cfi_startproc
	push	rbp
	.cfi_def_cfa_offset 16
	.cfi_offset 6, -16
	mov	rbp, rsp
	.cfi_def_cfa_register 6
	mov	QWORD PTR [rbp-8], rdi
	movabs	rax, 384307168202282325
	pop	rbp
	.cfi_def_cfa 7, 8
	ret
	.cfi_endproc
.LFE865:
	.size	_ZNK9__gnu_cxx13new_allocatorISt13_Rb_tree_nodeISt4pairIKilEEE8max_sizeEv, .-_ZNK9__gnu_cxx13new_allocatorISt13_Rb_tree_nodeISt4pairIKilEEE8max_sizeEv
	.ident	"GCC: (Ubuntu/Linaro 4.7.3-1ubuntu1) 4.7.3"
	.section	.note.GNU-stack,"",@progbits
